
coremark_bmrk.elf:     file format elf32-littleriscv


Disassembly of section .text:

00000000 <_start>:
       0:	80002117          	auipc	sp,0x80002
       4:	00010113          	mv	sp,sp
       8:	80001517          	auipc	a0,0x80001
       c:	b4450513          	addi	a0,a0,-1212 # 80000b4c <stop_time_val>
      10:	80001597          	auipc	a1,0x80001
      14:	b4458593          	addi	a1,a1,-1212 # 80000b54 <_ebss>

00000018 <_init_bss>:
      18:	00b57863          	bgeu	a0,a1,28 <_init_reg>
      1c:	00052023          	sw	zero,0(a0)
      20:	00450513          	addi	a0,a0,4
      24:	ff5ff06f          	j	18 <_init_bss>

00000028 <_init_reg>:
      28:	00000093          	li	ra,0
      2c:	00000193          	li	gp,0
      30:	00000213          	li	tp,0
      34:	00000293          	li	t0,0
      38:	00000313          	li	t1,0
      3c:	00000393          	li	t2,0
      40:	00000413          	li	s0,0
      44:	00000493          	li	s1,0
      48:	00000513          	li	a0,0
      4c:	00000593          	li	a1,0
      50:	00000613          	li	a2,0
      54:	00000693          	li	a3,0
      58:	00000713          	li	a4,0
      5c:	00000793          	li	a5,0
      60:	00000813          	li	a6,0
      64:	00000893          	li	a7,0
      68:	00000913          	li	s2,0
      6c:	00000993          	li	s3,0
      70:	00000a13          	li	s4,0
      74:	00000a93          	li	s5,0
      78:	00000b13          	li	s6,0
      7c:	00000b93          	li	s7,0
      80:	00000c13          	li	s8,0
      84:	00000c93          	li	s9,0
      88:	00000d13          	li	s10,0
      8c:	00000d93          	li	s11,0
      90:	00000e13          	li	t3,0
      94:	00000e93          	li	t4,0
      98:	00000f13          	li	t5,0
      9c:	00000f93          	li	t6,0

000000a0 <_call_main>:
      a0:	694050ef          	jal	5734 <main>
      a4:	fff00f93          	li	t6,-1
      a8:	eee00013          	li	zero,-274
      ac:	0000006f          	j	ac <_call_main+0xc>

000000b0 <calc_func>:
      b0:	00051803          	lh	a6,0(a0)
      b4:	40785793          	srai	a5,a6,0x7
      b8:	0017f793          	andi	a5,a5,1
      bc:	00078663          	beqz	a5,c8 <calc_func+0x18>
      c0:	07f87513          	andi	a0,a6,127
      c4:	00008067          	ret
      c8:	40385713          	srai	a4,a6,0x3
      cc:	00f77713          	andi	a4,a4,15
      d0:	fe010113          	addi	sp,sp,-32 # 80001fe0 <_ebss+0x148c>
      d4:	00471793          	slli	a5,a4,0x4
      d8:	00f70633          	add	a2,a4,a5
      dc:	00812c23          	sw	s0,24(sp)
      e0:	00112e23          	sw	ra,28(sp)
      e4:	00912a23          	sw	s1,20(sp)
      e8:	00787693          	andi	a3,a6,7
      ec:	0385d783          	lhu	a5,56(a1)
      f0:	00058893          	mv	a7,a1
      f4:	00050413          	mv	s0,a0
      f8:	00060713          	mv	a4,a2
      fc:	08068e63          	beqz	a3,198 <calc_func+0xe8>
     100:	00100613          	li	a2,1
     104:	08c69263          	bne	a3,a2,188 <calc_func+0xd8>
     108:	00078613          	mv	a2,a5
     10c:	02888513          	addi	a0,a7,40
     110:	00070593          	mv	a1,a4
     114:	01012623          	sw	a6,12(sp)
     118:	01112423          	sw	a7,8(sp)
     11c:	38d010ef          	jal	1ca8 <core_bench_matrix>
     120:	00812883          	lw	a7,8(sp)
     124:	01051493          	slli	s1,a0,0x10
     128:	00c12803          	lw	a6,12(sp)
     12c:	03c8d783          	lhu	a5,60(a7)
     130:	4104d493          	srai	s1,s1,0x10
     134:	0a079463          	bnez	a5,1dc <calc_func+0x12c>
     138:	0388d783          	lhu	a5,56(a7)
     13c:	02a89e23          	sh	a0,60(a7)
     140:	00078593          	mv	a1,a5
     144:	01112623          	sw	a7,12(sp)
     148:	01012423          	sw	a6,8(sp)
     14c:	651020ef          	jal	2f9c <crcu16>
     150:	00812803          	lw	a6,8(sp)
     154:	00c12883          	lw	a7,12(sp)
     158:	00050793          	mv	a5,a0
     15c:	f0087813          	andi	a6,a6,-256
     160:	07f4f513          	andi	a0,s1,127
     164:	01056833          	or	a6,a0,a6
     168:	02f89c23          	sh	a5,56(a7)
     16c:	08086813          	ori	a6,a6,128
     170:	01c12083          	lw	ra,28(sp)
     174:	01041023          	sh	a6,0(s0)
     178:	01812403          	lw	s0,24(sp)
     17c:	01412483          	lw	s1,20(sp)
     180:	02010113          	addi	sp,sp,32
     184:	00008067          	ret
     188:	01081513          	slli	a0,a6,0x10
     18c:	01055513          	srli	a0,a0,0x10
     190:	00080493          	mv	s1,a6
     194:	fadff06f          	j	140 <calc_func+0x90>
     198:	02100693          	li	a3,33
     19c:	00c6e463          	bltu	a3,a2,1a4 <calc_func+0xf4>
     1a0:	02200713          	li	a4,34
     1a4:	00289683          	lh	a3,2(a7)
     1a8:	00089603          	lh	a2,0(a7)
     1ac:	0148a583          	lw	a1,20(a7)
     1b0:	0188a503          	lw	a0,24(a7)
     1b4:	01012623          	sw	a6,12(sp)
     1b8:	01112423          	sw	a7,8(sp)
     1bc:	1bd020ef          	jal	2b78 <core_bench_state>
     1c0:	00812883          	lw	a7,8(sp)
     1c4:	01051493          	slli	s1,a0,0x10
     1c8:	00c12803          	lw	a6,12(sp)
     1cc:	03e8d783          	lhu	a5,62(a7)
     1d0:	4104d493          	srai	s1,s1,0x10
     1d4:	00079463          	bnez	a5,1dc <calc_func+0x12c>
     1d8:	02a89f23          	sh	a0,62(a7)
     1dc:	0388d783          	lhu	a5,56(a7)
     1e0:	f61ff06f          	j	140 <calc_func+0x90>

000001e4 <cmp_complex>:
     1e4:	00051803          	lh	a6,0(a0)
     1e8:	fe010113          	addi	sp,sp,-32
     1ec:	00812c23          	sw	s0,24(sp)
     1f0:	40785793          	srai	a5,a6,0x7
     1f4:	00912a23          	sw	s1,20(sp)
     1f8:	00112e23          	sw	ra,28(sp)
     1fc:	0017f793          	andi	a5,a5,1
     200:	00058493          	mv	s1,a1
     204:	00060413          	mv	s0,a2
     208:	07f87893          	andi	a7,a6,127
     20c:	0a079063          	bnez	a5,2ac <cmp_complex+0xc8>
     210:	40385713          	srai	a4,a6,0x3
     214:	00f77713          	andi	a4,a4,15
     218:	00471793          	slli	a5,a4,0x4
     21c:	00f70633          	add	a2,a4,a5
     220:	01212823          	sw	s2,16(sp)
     224:	00787693          	andi	a3,a6,7
     228:	03845783          	lhu	a5,56(s0)
     22c:	00050313          	mv	t1,a0
     230:	00060713          	mv	a4,a2
     234:	1c068063          	beqz	a3,3f4 <cmp_complex+0x210>
     238:	00100613          	li	a2,1
     23c:	14c69663          	bne	a3,a2,388 <cmp_complex+0x1a4>
     240:	00a12623          	sw	a0,12(sp)
     244:	00078613          	mv	a2,a5
     248:	00070593          	mv	a1,a4
     24c:	02840513          	addi	a0,s0,40
     250:	01012423          	sw	a6,8(sp)
     254:	255010ef          	jal	1ca8 <core_bench_matrix>
     258:	03c45783          	lhu	a5,60(s0)
     25c:	01051913          	slli	s2,a0,0x10
     260:	00812803          	lw	a6,8(sp)
     264:	00c12303          	lw	t1,12(sp)
     268:	41095913          	srai	s2,s2,0x10
     26c:	1c079663          	bnez	a5,438 <cmp_complex+0x254>
     270:	03845783          	lhu	a5,56(s0)
     274:	02a41e23          	sh	a0,60(s0)
     278:	00078593          	mv	a1,a5
     27c:	00612623          	sw	t1,12(sp)
     280:	01012423          	sw	a6,8(sp)
     284:	519020ef          	jal	2f9c <crcu16>
     288:	00812803          	lw	a6,8(sp)
     28c:	07f97893          	andi	a7,s2,127
     290:	00c12303          	lw	t1,12(sp)
     294:	f0087813          	andi	a6,a6,-256
     298:	0108e833          	or	a6,a7,a6
     29c:	01012903          	lw	s2,16(sp)
     2a0:	08086813          	ori	a6,a6,128
     2a4:	02a41c23          	sh	a0,56(s0)
     2a8:	01031023          	sh	a6,0(t1)
     2ac:	00049803          	lh	a6,0(s1)
     2b0:	40785793          	srai	a5,a6,0x7
     2b4:	0017f793          	andi	a5,a5,1
     2b8:	02078063          	beqz	a5,2d8 <cmp_complex+0xf4>
     2bc:	01c12083          	lw	ra,28(sp)
     2c0:	01812403          	lw	s0,24(sp)
     2c4:	07f87793          	andi	a5,a6,127
     2c8:	01412483          	lw	s1,20(sp)
     2cc:	40f88533          	sub	a0,a7,a5
     2d0:	02010113          	addi	sp,sp,32
     2d4:	00008067          	ret
     2d8:	40385713          	srai	a4,a6,0x3
     2dc:	00f77713          	andi	a4,a4,15
     2e0:	00471793          	slli	a5,a4,0x4
     2e4:	00f70633          	add	a2,a4,a5
     2e8:	01212823          	sw	s2,16(sp)
     2ec:	00787693          	andi	a3,a6,7
     2f0:	03845783          	lhu	a5,56(s0)
     2f4:	00060713          	mv	a4,a2
     2f8:	0a068863          	beqz	a3,3a8 <cmp_complex+0x1c4>
     2fc:	00100613          	li	a2,1
     300:	08c69c63          	bne	a3,a2,398 <cmp_complex+0x1b4>
     304:	00078613          	mv	a2,a5
     308:	00070593          	mv	a1,a4
     30c:	02840513          	addi	a0,s0,40
     310:	01112623          	sw	a7,12(sp)
     314:	01012423          	sw	a6,8(sp)
     318:	191010ef          	jal	1ca8 <core_bench_matrix>
     31c:	03c45783          	lhu	a5,60(s0)
     320:	01051913          	slli	s2,a0,0x10
     324:	00812803          	lw	a6,8(sp)
     328:	00c12883          	lw	a7,12(sp)
     32c:	41095913          	srai	s2,s2,0x10
     330:	0a079e63          	bnez	a5,3ec <cmp_complex+0x208>
     334:	03845783          	lhu	a5,56(s0)
     338:	02a41e23          	sh	a0,60(s0)
     33c:	00078593          	mv	a1,a5
     340:	01112623          	sw	a7,12(sp)
     344:	01012423          	sw	a6,8(sp)
     348:	455020ef          	jal	2f9c <crcu16>
     34c:	00812803          	lw	a6,8(sp)
     350:	07f97793          	andi	a5,s2,127
     354:	02a41c23          	sh	a0,56(s0)
     358:	f0087813          	andi	a6,a6,-256
     35c:	00c12883          	lw	a7,12(sp)
     360:	01c12083          	lw	ra,28(sp)
     364:	01812403          	lw	s0,24(sp)
     368:	0107e833          	or	a6,a5,a6
     36c:	08086813          	ori	a6,a6,128
     370:	01049023          	sh	a6,0(s1)
     374:	01012903          	lw	s2,16(sp)
     378:	01412483          	lw	s1,20(sp)
     37c:	40f88533          	sub	a0,a7,a5
     380:	02010113          	addi	sp,sp,32
     384:	00008067          	ret
     388:	01081513          	slli	a0,a6,0x10
     38c:	01055513          	srli	a0,a0,0x10
     390:	00080913          	mv	s2,a6
     394:	ee5ff06f          	j	278 <cmp_complex+0x94>
     398:	01081513          	slli	a0,a6,0x10
     39c:	01055513          	srli	a0,a0,0x10
     3a0:	00080913          	mv	s2,a6
     3a4:	f99ff06f          	j	33c <cmp_complex+0x158>
     3a8:	02100693          	li	a3,33
     3ac:	00c6e463          	bltu	a3,a2,3b4 <cmp_complex+0x1d0>
     3b0:	02200713          	li	a4,34
     3b4:	00241683          	lh	a3,2(s0)
     3b8:	00041603          	lh	a2,0(s0)
     3bc:	01442583          	lw	a1,20(s0)
     3c0:	01842503          	lw	a0,24(s0)
     3c4:	01112623          	sw	a7,12(sp)
     3c8:	01012423          	sw	a6,8(sp)
     3cc:	7ac020ef          	jal	2b78 <core_bench_state>
     3d0:	03e45783          	lhu	a5,62(s0)
     3d4:	01051913          	slli	s2,a0,0x10
     3d8:	00812803          	lw	a6,8(sp)
     3dc:	00c12883          	lw	a7,12(sp)
     3e0:	41095913          	srai	s2,s2,0x10
     3e4:	00079463          	bnez	a5,3ec <cmp_complex+0x208>
     3e8:	02a41f23          	sh	a0,62(s0)
     3ec:	03845783          	lhu	a5,56(s0)
     3f0:	f4dff06f          	j	33c <cmp_complex+0x158>
     3f4:	02100693          	li	a3,33
     3f8:	00c6e463          	bltu	a3,a2,400 <cmp_complex+0x21c>
     3fc:	02200713          	li	a4,34
     400:	00241683          	lh	a3,2(s0)
     404:	00041603          	lh	a2,0(s0)
     408:	01442583          	lw	a1,20(s0)
     40c:	01842503          	lw	a0,24(s0)
     410:	00612623          	sw	t1,12(sp)
     414:	01012423          	sw	a6,8(sp)
     418:	760020ef          	jal	2b78 <core_bench_state>
     41c:	03e45783          	lhu	a5,62(s0)
     420:	01051913          	slli	s2,a0,0x10
     424:	00812803          	lw	a6,8(sp)
     428:	00c12303          	lw	t1,12(sp)
     42c:	41095913          	srai	s2,s2,0x10
     430:	00079463          	bnez	a5,438 <cmp_complex+0x254>
     434:	02a41f23          	sh	a0,62(s0)
     438:	03845783          	lhu	a5,56(s0)
     43c:	e3dff06f          	j	278 <cmp_complex+0x94>

00000440 <cmp_idx>:
     440:	00060a63          	beqz	a2,454 <cmp_idx+0x14>
     444:	00251503          	lh	a0,2(a0)
     448:	00259783          	lh	a5,2(a1)
     44c:	40f50533          	sub	a0,a0,a5
     450:	00008067          	ret
     454:	00051783          	lh	a5,0(a0)
     458:	01079693          	slli	a3,a5,0x10
     45c:	f007f713          	andi	a4,a5,-256
     460:	0186d793          	srli	a5,a3,0x18
     464:	00f767b3          	or	a5,a4,a5
     468:	00f51023          	sh	a5,0(a0)
     46c:	00059783          	lh	a5,0(a1)
     470:	00251503          	lh	a0,2(a0)
     474:	01079693          	slli	a3,a5,0x10
     478:	f007f713          	andi	a4,a5,-256
     47c:	0186d793          	srli	a5,a3,0x18
     480:	00f767b3          	or	a5,a4,a5
     484:	00f59023          	sh	a5,0(a1)
     488:	00259783          	lh	a5,2(a1)
     48c:	40f50533          	sub	a0,a0,a5
     490:	00008067          	ret

00000494 <copy_info>:
     494:	00059703          	lh	a4,0(a1)
     498:	00259783          	lh	a5,2(a1)
     49c:	00e51023          	sh	a4,0(a0)
     4a0:	00f51123          	sh	a5,2(a0)
     4a4:	00008067          	ret

000004a8 <core_bench_list>:
     4a8:	fc010113          	addi	sp,sp,-64
     4ac:	02812c23          	sw	s0,56(sp)
     4b0:	00451403          	lh	s0,4(a0)
     4b4:	02912a23          	sw	s1,52(sp)
     4b8:	03212823          	sw	s2,48(sp)
     4bc:	03612023          	sw	s6,32(sp)
     4c0:	02112e23          	sw	ra,60(sp)
     4c4:	03312623          	sw	s3,44(sp)
     4c8:	03412423          	sw	s4,40(sp)
     4cc:	03512223          	sw	s5,36(sp)
     4d0:	01712e23          	sw	s7,28(sp)
     4d4:	01812c23          	sw	s8,24(sp)
     4d8:	01912a23          	sw	s9,20(sp)
     4dc:	01a12823          	sw	s10,16(sp)
     4e0:	01b12623          	sw	s11,12(sp)
     4e4:	02452483          	lw	s1,36(a0)
     4e8:	00050b13          	mv	s6,a0
     4ec:	00058913          	mv	s2,a1
     4f0:	54805a63          	blez	s0,a44 <core_bench_list+0x59c>
     4f4:	5005c263          	bltz	a1,9f8 <core_bench_list+0x550>
     4f8:	56048263          	beqz	s1,a5c <core_bench_list+0x5b4>
     4fc:	00058c13          	mv	s8,a1
     500:	00000a13          	li	s4,0
     504:	00000b93          	li	s7,0
     508:	00000a93          	li	s5,0
     50c:	00000c93          	li	s9,0
     510:	00000d13          	li	s10,0
     514:	800009b7          	lui	s3,0x80000
     518:	00048793          	mv	a5,s1
     51c:	00c0006f          	j	528 <core_bench_list+0x80>
     520:	0007a783          	lw	a5,0(a5)
     524:	00078863          	beqz	a5,534 <core_bench_list+0x8c>
     528:	0047a503          	lw	a0,4(a5)
     52c:	00251503          	lh	a0,2(a0)
     530:	ff8518e3          	bne	a0,s8,520 <core_bench_list+0x78>
     534:	00000813          	li	a6,0
     538:	0080006f          	j	540 <core_bench_list+0x98>
     53c:	00050493          	mv	s1,a0
     540:	0004a503          	lw	a0,0(s1)
     544:	0104a023          	sw	a6,0(s1)
     548:	00048813          	mv	a6,s1
     54c:	fe0518e3          	bnez	a0,53c <core_bench_list+0x94>
     550:	0a078463          	beqz	a5,5f8 <core_bench_list+0x150>
     554:	0047a703          	lw	a4,4(a5)
     558:	001b8b93          	addi	s7,s7,1
     55c:	010b9b93          	slli	s7,s7,0x10
     560:	00071703          	lh	a4,0(a4)
     564:	010bdb93          	srli	s7,s7,0x10
     568:	00177693          	andi	a3,a4,1
     56c:	00068c63          	beqz	a3,584 <core_bench_list+0xdc>
     570:	40975713          	srai	a4,a4,0x9
     574:	00177713          	andi	a4,a4,1
     578:	00ec8733          	add	a4,s9,a4
     57c:	01071c93          	slli	s9,a4,0x10
     580:	010cdc93          	srli	s9,s9,0x10
     584:	0007a703          	lw	a4,0(a5)
     588:	00070c63          	beqz	a4,5a0 <core_bench_list+0xf8>
     58c:	00072683          	lw	a3,0(a4)
     590:	00d7a023          	sw	a3,0(a5)
     594:	0004a783          	lw	a5,0(s1)
     598:	00f72023          	sw	a5,0(a4)
     59c:	00e4a023          	sw	a4,0(s1)
     5a0:	000c4863          	bltz	s8,5b0 <core_bench_list+0x108>
     5a4:	001c0c13          	addi	s8,s8,1
     5a8:	010c1c13          	slli	s8,s8,0x10
     5ac:	410c5c13          	srai	s8,s8,0x10
     5b0:	000a8593          	mv	a1,s5
     5b4:	000b8713          	mv	a4,s7
     5b8:	000a0693          	mv	a3,s4
     5bc:	000c8613          	mv	a2,s9
     5c0:	41c98513          	addi	a0,s3,1052 # 8000041c <main+0x7ffface8>
     5c4:	001a8a93          	addi	s5,s5,1
     5c8:	1b9030ef          	jal	3f80 <ee_printf>
     5cc:	05540c63          	beq	s0,s5,624 <core_bench_list+0x17c>
     5d0:	0ffafd13          	zext.b	s10,s5
     5d4:	f40c52e3          	bgez	s8,518 <core_bench_list+0x70>
     5d8:	00048793          	mv	a5,s1
     5dc:	00c0006f          	j	5e8 <core_bench_list+0x140>
     5e0:	0007a783          	lw	a5,0(a5)
     5e4:	f40788e3          	beqz	a5,534 <core_bench_list+0x8c>
     5e8:	0047a683          	lw	a3,4(a5)
     5ec:	0006c683          	lbu	a3,0(a3)
     5f0:	ffa698e3          	bne	a3,s10,5e0 <core_bench_list+0x138>
     5f4:	f41ff06f          	j	534 <core_bench_list+0x8c>
     5f8:	0004a783          	lw	a5,0(s1)
     5fc:	001a0a13          	addi	s4,s4,1
     600:	010a1a13          	slli	s4,s4,0x10
     604:	0047a783          	lw	a5,4(a5)
     608:	010a5a13          	srli	s4,s4,0x10
     60c:	00178783          	lb	a5,1(a5)
     610:	0017f793          	andi	a5,a5,1
     614:	00fc87b3          	add	a5,s9,a5
     618:	01079c93          	slli	s9,a5,0x10
     61c:	010cdc93          	srli	s9,s9,0x10
     620:	f81ff06f          	j	5a0 <core_bench_list+0xf8>
     624:	002b9b93          	slli	s7,s7,0x2
     628:	414b8bb3          	sub	s7,s7,s4
     62c:	017c8bb3          	add	s7,s9,s7
     630:	010b9413          	slli	s0,s7,0x10
     634:	01045413          	srli	s0,s0,0x10
     638:	29204863          	bgtz	s2,8c8 <core_bench_list+0x420>
     63c:	0004a783          	lw	a5,0(s1)
     640:	00048913          	mv	s2,s1
     644:	0007a983          	lw	s3,0(a5)
     648:	0047a683          	lw	a3,4(a5)
     64c:	0049a603          	lw	a2,4(s3)
     650:	0009a703          	lw	a4,0(s3)
     654:	00c7a223          	sw	a2,4(a5)
     658:	00d9a223          	sw	a3,4(s3)
     65c:	00e7a023          	sw	a4,0(a5)
     660:	0009a023          	sw	zero,0(s3)
     664:	140c4663          	bltz	s8,7b0 <core_bench_list+0x308>
     668:	00492783          	lw	a5,4(s2)
     66c:	00279783          	lh	a5,2(a5)
     670:	01878c63          	beq	a5,s8,688 <core_bench_list+0x1e0>
     674:	00092903          	lw	s2,0(s2)
     678:	3a090263          	beqz	s2,a1c <core_bench_list+0x574>
     67c:	00492783          	lw	a5,4(s2)
     680:	00279783          	lh	a5,2(a5)
     684:	ff8798e3          	bne	a5,s8,674 <core_bench_list+0x1cc>
     688:	0044a783          	lw	a5,4(s1)
     68c:	00040593          	mv	a1,s0
     690:	00079503          	lh	a0,0(a5)
     694:	751020ef          	jal	35e4 <crc16>
     698:	00092903          	lw	s2,0(s2)
     69c:	00050413          	mv	s0,a0
     6a0:	fe0914e3          	bnez	s2,688 <core_bench_list+0x1e0>
     6a4:	80000537          	lui	a0,0x80000
     6a8:	43850513          	addi	a0,a0,1080 # 80000438 <main+0x7fffad04>
     6ac:	00040593          	mv	a1,s0
     6b0:	0d1030ef          	jal	3f80 <ee_printf>
     6b4:	0004a783          	lw	a5,0(s1)
     6b8:	0049a683          	lw	a3,4(s3)
     6bc:	00100f13          	li	t5,1
     6c0:	0047a603          	lw	a2,4(a5)
     6c4:	0007a703          	lw	a4,0(a5)
     6c8:	000f0293          	mv	t0,t5
     6cc:	00c9a223          	sw	a2,4(s3)
     6d0:	00d7a223          	sw	a3,4(a5)
     6d4:	00e9a023          	sw	a4,0(s3)
     6d8:	0137a023          	sw	s3,0(a5)
     6dc:	00048693          	mv	a3,s1
     6e0:	00000713          	li	a4,0
     6e4:	00000493          	li	s1,0
     6e8:	00000f93          	li	t6,0
     6ec:	001f8f93          	addi	t6,t6,1
     6f0:	00068593          	mv	a1,a3
     6f4:	00000793          	li	a5,0
     6f8:	01e7d863          	bge	a5,t5,708 <core_bench_list+0x260>
     6fc:	0005a583          	lw	a1,0(a1)
     700:	00178793          	addi	a5,a5,1
     704:	fe059ae3          	bnez	a1,6f8 <core_bench_list+0x250>
     708:	00068613          	mv	a2,a3
     70c:	000f0813          	mv	a6,t5
     710:	00058693          	mv	a3,a1
     714:	02f05463          	blez	a5,73c <core_bench_list+0x294>
     718:	00080463          	beqz	a6,720 <core_bench_list+0x278>
     71c:	02069863          	bnez	a3,74c <core_bench_list+0x2a4>
     720:	00070593          	mv	a1,a4
     724:	fff78793          	addi	a5,a5,-1
     728:	00060713          	mv	a4,a2
     72c:	00062603          	lw	a2,0(a2)
     730:	08058863          	beqz	a1,7c0 <core_bench_list+0x318>
     734:	00e5a023          	sw	a4,0(a1)
     738:	fef040e3          	bgtz	a5,718 <core_bench_list+0x270>
     73c:	00d035b3          	snez	a1,a3
     740:	0d005263          	blez	a6,804 <core_bench_list+0x35c>
     744:	0c058263          	beqz	a1,808 <core_bench_list+0x360>
     748:	08078063          	beqz	a5,7c8 <core_bench_list+0x320>
     74c:	0046a303          	lw	t1,4(a3)
     750:	00462503          	lw	a0,4(a2)
     754:	00231e03          	lh	t3,2(t1)
     758:	00051583          	lh	a1,0(a0)
     75c:	00251e83          	lh	t4,2(a0)
     760:	01059393          	slli	t2,a1,0x10
     764:	f005f893          	andi	a7,a1,-256
     768:	0183d593          	srli	a1,t2,0x18
     76c:	00b8e5b3          	or	a1,a7,a1
     770:	00b51023          	sh	a1,0(a0)
     774:	00031583          	lh	a1,0(t1)
     778:	01059893          	slli	a7,a1,0x10
     77c:	f005f513          	andi	a0,a1,-256
     780:	0188d593          	srli	a1,a7,0x18
     784:	00b565b3          	or	a1,a0,a1
     788:	00b31023          	sh	a1,0(t1)
     78c:	09de5a63          	bge	t3,t4,820 <core_bench_list+0x378>
     790:	00070593          	mv	a1,a4
     794:	fff80813          	addi	a6,a6,-1
     798:	00068713          	mv	a4,a3
     79c:	0006a683          	lw	a3,0(a3)
     7a0:	f8059ae3          	bnez	a1,734 <core_bench_list+0x28c>
     7a4:	01c0006f          	j	7c0 <core_bench_list+0x318>
     7a8:	00092903          	lw	s2,0(s2)
     7ac:	26090863          	beqz	s2,a1c <core_bench_list+0x574>
     7b0:	00492783          	lw	a5,4(s2)
     7b4:	0007c783          	lbu	a5,0(a5)
     7b8:	fefd18e3          	bne	s10,a5,7a8 <core_bench_list+0x300>
     7bc:	ecdff06f          	j	688 <core_bench_list+0x1e0>
     7c0:	00070493          	mv	s1,a4
     7c4:	f51ff06f          	j	714 <core_bench_list+0x26c>
     7c8:	00070793          	mv	a5,a4
     7cc:	0180006f          	j	7e4 <core_bench_list+0x33c>
     7d0:	00e7a023          	sw	a4,0(a5)
     7d4:	00d035b3          	snez	a1,a3
     7d8:	00070793          	mv	a5,a4
     7dc:	02080463          	beqz	a6,804 <core_bench_list+0x35c>
     7e0:	02058463          	beqz	a1,808 <core_bench_list+0x360>
     7e4:	00068713          	mv	a4,a3
     7e8:	fff80813          	addi	a6,a6,-1
     7ec:	0006a683          	lw	a3,0(a3)
     7f0:	fe0790e3          	bnez	a5,7d0 <core_bench_list+0x328>
     7f4:	00070493          	mv	s1,a4
     7f8:	00d035b3          	snez	a1,a3
     7fc:	00070793          	mv	a5,a4
     800:	fe0810e3          	bnez	a6,7e0 <core_bench_list+0x338>
     804:	ee0594e3          	bnez	a1,6ec <core_bench_list+0x244>
     808:	00072023          	sw	zero,0(a4)
     80c:	045f8463          	beq	t6,t0,854 <core_bench_list+0x3ac>
     810:	001f1f13          	slli	t5,t5,0x1
     814:	ec0494e3          	bnez	s1,6dc <core_bench_list+0x234>
     818:	00002023          	sw	zero,0(zero) # 0 <_start>
     81c:	00100073          	ebreak
     820:	00062503          	lw	a0,0(a2)
     824:	fff78793          	addi	a5,a5,-1
     828:	00070c63          	beqz	a4,840 <core_bench_list+0x398>
     82c:	00070593          	mv	a1,a4
     830:	00060713          	mv	a4,a2
     834:	00e5a023          	sw	a4,0(a1)
     838:	00050613          	mv	a2,a0
     83c:	efdff06f          	j	738 <core_bench_list+0x290>
     840:	00060713          	mv	a4,a2
     844:	00060493          	mv	s1,a2
     848:	00050613          	mv	a2,a0
     84c:	f0f042e3          	bgtz	a5,750 <core_bench_list+0x2a8>
     850:	eedff06f          	j	73c <core_bench_list+0x294>
     854:	0004a903          	lw	s2,0(s1)
     858:	02090063          	beqz	s2,878 <core_bench_list+0x3d0>
     85c:	0044a783          	lw	a5,4(s1)
     860:	00040593          	mv	a1,s0
     864:	00079503          	lh	a0,0(a5)
     868:	57d020ef          	jal	35e4 <crc16>
     86c:	00092903          	lw	s2,0(s2)
     870:	00050413          	mv	s0,a0
     874:	fe0914e3          	bnez	s2,85c <core_bench_list+0x3b4>
     878:	80000537          	lui	a0,0x80000
     87c:	00040593          	mv	a1,s0
     880:	44c50513          	addi	a0,a0,1100 # 8000044c <main+0x7fffad18>
     884:	6fc030ef          	jal	3f80 <ee_printf>
     888:	03c12083          	lw	ra,60(sp)
     88c:	00040513          	mv	a0,s0
     890:	03812403          	lw	s0,56(sp)
     894:	03412483          	lw	s1,52(sp)
     898:	03012903          	lw	s2,48(sp)
     89c:	02c12983          	lw	s3,44(sp)
     8a0:	02812a03          	lw	s4,40(sp)
     8a4:	02412a83          	lw	s5,36(sp)
     8a8:	02012b03          	lw	s6,32(sp)
     8ac:	01c12b83          	lw	s7,28(sp)
     8b0:	01812c03          	lw	s8,24(sp)
     8b4:	01412c83          	lw	s9,20(sp)
     8b8:	01012d03          	lw	s10,16(sp)
     8bc:	00c12d83          	lw	s11,12(sp)
     8c0:	04010113          	addi	sp,sp,64
     8c4:	00008067          	ret
     8c8:	00100a93          	li	s5,1
     8cc:	f40486e3          	beqz	s1,818 <core_bench_list+0x370>
     8d0:	00000b93          	li	s7,0
     8d4:	00000993          	li	s3,0
     8d8:	00000c93          	li	s9,0
     8dc:	001c8c93          	addi	s9,s9,1
     8e0:	00048793          	mv	a5,s1
     8e4:	00000913          	li	s2,0
     8e8:	01595863          	bge	s2,s5,8f8 <core_bench_list+0x450>
     8ec:	0007a783          	lw	a5,0(a5)
     8f0:	00190913          	addi	s2,s2,1
     8f4:	fe079ae3          	bnez	a5,8e8 <core_bench_list+0x440>
     8f8:	00048a13          	mv	s4,s1
     8fc:	000a8d93          	mv	s11,s5
     900:	00078493          	mv	s1,a5
     904:	03205463          	blez	s2,92c <core_bench_list+0x484>
     908:	000d8463          	beqz	s11,910 <core_bench_list+0x468>
     90c:	02049863          	bnez	s1,93c <core_bench_list+0x494>
     910:	00098793          	mv	a5,s3
     914:	fff90913          	addi	s2,s2,-1
     918:	000a0993          	mv	s3,s4
     91c:	000a2a03          	lw	s4,0(s4)
     920:	04078263          	beqz	a5,964 <core_bench_list+0x4bc>
     924:	0137a023          	sw	s3,0(a5)
     928:	ff2040e3          	bgtz	s2,908 <core_bench_list+0x460>
     92c:	009037b3          	snez	a5,s1
     930:	07b05c63          	blez	s11,9a8 <core_bench_list+0x500>
     934:	06078c63          	beqz	a5,9ac <core_bench_list+0x504>
     938:	02090a63          	beqz	s2,96c <core_bench_list+0x4c4>
     93c:	0044a583          	lw	a1,4(s1)
     940:	004a2503          	lw	a0,4(s4)
     944:	000b0613          	mv	a2,s6
     948:	89dff0ef          	jal	1e4 <cmp_complex>
     94c:	06a05c63          	blez	a0,9c4 <core_bench_list+0x51c>
     950:	00098793          	mv	a5,s3
     954:	fffd8d93          	addi	s11,s11,-1
     958:	00048993          	mv	s3,s1
     95c:	0004a483          	lw	s1,0(s1)
     960:	fc0792e3          	bnez	a5,924 <core_bench_list+0x47c>
     964:	00098b93          	mv	s7,s3
     968:	f9dff06f          	j	904 <core_bench_list+0x45c>
     96c:	00098693          	mv	a3,s3
     970:	0180006f          	j	988 <core_bench_list+0x4e0>
     974:	0136a023          	sw	s3,0(a3)
     978:	009037b3          	snez	a5,s1
     97c:	00098693          	mv	a3,s3
     980:	020d8463          	beqz	s11,9a8 <core_bench_list+0x500>
     984:	02078463          	beqz	a5,9ac <core_bench_list+0x504>
     988:	00048993          	mv	s3,s1
     98c:	fffd8d93          	addi	s11,s11,-1
     990:	0004a483          	lw	s1,0(s1)
     994:	fe0690e3          	bnez	a3,974 <core_bench_list+0x4cc>
     998:	00098b93          	mv	s7,s3
     99c:	009037b3          	snez	a5,s1
     9a0:	00098693          	mv	a3,s3
     9a4:	fe0d90e3          	bnez	s11,984 <core_bench_list+0x4dc>
     9a8:	f2079ae3          	bnez	a5,8dc <core_bench_list+0x434>
     9ac:	0009a023          	sw	zero,0(s3)
     9b0:	00100793          	li	a5,1
     9b4:	0afc8063          	beq	s9,a5,a54 <core_bench_list+0x5ac>
     9b8:	001a9a93          	slli	s5,s5,0x1
     9bc:	000b8493          	mv	s1,s7
     9c0:	f0dff06f          	j	8cc <core_bench_list+0x424>
     9c4:	000a2683          	lw	a3,0(s4)
     9c8:	fff90913          	addi	s2,s2,-1
     9cc:	00098c63          	beqz	s3,9e4 <core_bench_list+0x53c>
     9d0:	00098793          	mv	a5,s3
     9d4:	000a0993          	mv	s3,s4
     9d8:	0137a023          	sw	s3,0(a5)
     9dc:	00068a13          	mv	s4,a3
     9e0:	f49ff06f          	j	928 <core_bench_list+0x480>
     9e4:	000a0993          	mv	s3,s4
     9e8:	000a0b93          	mv	s7,s4
     9ec:	00068a13          	mv	s4,a3
     9f0:	f52046e3          	bgtz	s2,93c <core_bench_list+0x494>
     9f4:	f39ff06f          	j	92c <core_bench_list+0x484>
     9f8:	06048263          	beqz	s1,a5c <core_bench_list+0x5b4>
     9fc:	00058c13          	mv	s8,a1
     a00:	00000a13          	li	s4,0
     a04:	00000b93          	li	s7,0
     a08:	00000a93          	li	s5,0
     a0c:	00000c93          	li	s9,0
     a10:	00000d13          	li	s10,0
     a14:	800009b7          	lui	s3,0x80000
     a18:	bc1ff06f          	j	5d8 <core_bench_list+0x130>
     a1c:	0004a903          	lw	s2,0(s1)
     a20:	c80902e3          	beqz	s2,6a4 <core_bench_list+0x1fc>
     a24:	0044a783          	lw	a5,4(s1)
     a28:	00040593          	mv	a1,s0
     a2c:	00079503          	lh	a0,0(a5)
     a30:	3b5020ef          	jal	35e4 <crc16>
     a34:	00092903          	lw	s2,0(s2)
     a38:	00050413          	mv	s0,a0
     a3c:	c40916e3          	bnez	s2,688 <core_bench_list+0x1e0>
     a40:	c65ff06f          	j	6a4 <core_bench_list+0x1fc>
     a44:	00058c13          	mv	s8,a1
     a48:	00000413          	li	s0,0
     a4c:	00000d13          	li	s10,0
     a50:	be9ff06f          	j	638 <core_bench_list+0x190>
     a54:	000b8493          	mv	s1,s7
     a58:	be5ff06f          	j	63c <core_bench_list+0x194>
     a5c:	00002783          	lw	a5,0(zero) # 0 <_start>
     a60:	00100073          	ebreak

00000a64 <core_list_init>:
     a64:	fe010113          	addi	sp,sp,-32
     a68:	00812c23          	sw	s0,24(sp)
     a6c:	00058413          	mv	s0,a1
     a70:	01400593          	li	a1,20
     a74:	00912a23          	sw	s1,20(sp)
     a78:	01312623          	sw	s3,12(sp)
     a7c:	00112e23          	sw	ra,28(sp)
     a80:	01212823          	sw	s2,16(sp)
     a84:	00060993          	mv	s3,a2
     a88:	401040ef          	jal	5688 <__hidden___udivsi3>
     a8c:	ffe50513          	addi	a0,a0,-2
     a90:	00351813          	slli	a6,a0,0x3
     a94:	01040833          	add	a6,s0,a6
     a98:	ffff87b7          	lui	a5,0xffff8
     a9c:	00042023          	sw	zero,0(s0)
     aa0:	01042223          	sw	a6,4(s0)
     aa4:	08078793          	addi	a5,a5,128 # ffff8080 <_stack_top+0x7fff6080>
     aa8:	00f81023          	sh	a5,0(a6)
     aac:	00251e13          	slli	t3,a0,0x2
     ab0:	00081123          	sh	zero,2(a6)
     ab4:	01040713          	addi	a4,s0,16
     ab8:	01c80e33          	add	t3,a6,t3
     abc:	00480793          	addi	a5,a6,4
     ac0:	00840493          	addi	s1,s0,8
     ac4:	2d077463          	bgeu	a4,a6,d8c <core_list_init+0x328>
     ac8:	00880693          	addi	a3,a6,8
     acc:	2dc6f063          	bgeu	a3,t3,d8c <core_list_init+0x328>
     ad0:	ffff8637          	lui	a2,0xffff8
     ad4:	00f42623          	sw	a5,12(s0)
     ad8:	00042423          	sw	zero,8(s0)
     adc:	00942023          	sw	s1,0(s0)
     ae0:	fff64793          	not	a5,a2
     ae4:	fff00613          	li	a2,-1
     ae8:	00f81323          	sh	a5,6(a6)
     aec:	00c81223          	sh	a2,4(a6)
     af0:	06050863          	beqz	a0,b60 <core_list_init+0xfc>
     af4:	ffff8637          	lui	a2,0xffff8
     af8:	00870893          	addi	a7,a4,8
     afc:	fff64613          	not	a2,a2
     b00:	00000593          	li	a1,0
     b04:	0508fc63          	bgeu	a7,a6,b5c <core_list_init+0xf8>
     b08:	00468313          	addi	t1,a3,4
     b0c:	21c37463          	bgeu	t1,t3,d14 <core_list_init+0x2b0>
     b10:	00042e83          	lw	t4,0(s0)
     b14:	00b9c7b3          	xor	a5,s3,a1
     b18:	00379793          	slli	a5,a5,0x3
     b1c:	0075ff13          	andi	t5,a1,7
     b20:	0787f793          	andi	a5,a5,120
     b24:	01d72023          	sw	t4,0(a4)
     b28:	01e7e7b3          	or	a5,a5,t5
     b2c:	00e42023          	sw	a4,0(s0)
     b30:	00879e93          	slli	t4,a5,0x8
     b34:	00d72223          	sw	a3,4(a4)
     b38:	01d787b3          	add	a5,a5,t4
     b3c:	00158593          	addi	a1,a1,1
     b40:	00f69023          	sh	a5,0(a3)
     b44:	00c69123          	sh	a2,2(a3)
     b48:	00b50a63          	beq	a0,a1,b5c <core_list_init+0xf8>
     b4c:	00088713          	mv	a4,a7
     b50:	00870893          	addi	a7,a4,8
     b54:	00030693          	mv	a3,t1
     b58:	fb08e8e3          	bltu	a7,a6,b08 <core_list_init+0xa4>
     b5c:	00042483          	lw	s1,0(s0)
     b60:	0004a903          	lw	s2,0(s1)
     b64:	06090063          	beqz	s2,bc4 <core_list_init+0x160>
     b68:	00500593          	li	a1,5
     b6c:	31d040ef          	jal	5688 <__hidden___udivsi3>
     b70:	00004637          	lui	a2,0x4
     b74:	fff60613          	addi	a2,a2,-1 # 3fff <ee_printf+0x7f>
     b78:	20000593          	li	a1,512
     b7c:	00100793          	li	a5,1
     b80:	0200006f          	j	ba0 <core_list_init+0x13c>
     b84:	00092683          	lw	a3,0(s2)
     b88:	00f81123          	sh	a5,2(a6)
     b8c:	02068c63          	beqz	a3,bc4 <core_list_init+0x160>
     b90:	00090493          	mv	s1,s2
     b94:	00178793          	addi	a5,a5,1
     b98:	10058593          	addi	a1,a1,256
     b9c:	00068913          	mv	s2,a3
     ba0:	0044a803          	lw	a6,4(s1)
     ba4:	fea7e0e3          	bltu	a5,a0,b84 <core_list_init+0x120>
     ba8:	0137c6b3          	xor	a3,a5,s3
     bac:	7005f713          	andi	a4,a1,1792
     bb0:	00d76733          	or	a4,a4,a3
     bb4:	00092683          	lw	a3,0(s2)
     bb8:	00c77733          	and	a4,a4,a2
     bbc:	00e81123          	sh	a4,2(a6)
     bc0:	fc0698e3          	bnez	a3,b90 <core_list_init+0x12c>
     bc4:	00100f13          	li	t5,1
     bc8:	000f0393          	mv	t2,t5
     bcc:	00040713          	mv	a4,s0
     bd0:	00000613          	li	a2,0
     bd4:	00000413          	li	s0,0
     bd8:	00000293          	li	t0,0
     bdc:	00128293          	addi	t0,t0,1
     be0:	00070593          	mv	a1,a4
     be4:	00000793          	li	a5,0
     be8:	01e7d863          	bge	a5,t5,bf8 <core_list_init+0x194>
     bec:	0005a583          	lw	a1,0(a1)
     bf0:	00178793          	addi	a5,a5,1
     bf4:	fe059ae3          	bnez	a1,be8 <core_list_init+0x184>
     bf8:	00070693          	mv	a3,a4
     bfc:	000f0513          	mv	a0,t5
     c00:	00058713          	mv	a4,a1
     c04:	02f05463          	blez	a5,c2c <core_list_init+0x1c8>
     c08:	00050463          	beqz	a0,c10 <core_list_init+0x1ac>
     c0c:	02071863          	bnez	a4,c3c <core_list_init+0x1d8>
     c10:	0006a583          	lw	a1,0(a3)
     c14:	fff78793          	addi	a5,a5,-1
     c18:	06060e63          	beqz	a2,c94 <core_list_init+0x230>
     c1c:	00d62023          	sw	a3,0(a2)
     c20:	00068613          	mv	a2,a3
     c24:	00058693          	mv	a3,a1
     c28:	fef040e3          	bgtz	a5,c08 <core_list_init+0x1a4>
     c2c:	00e035b3          	snez	a1,a4
     c30:	0aa05463          	blez	a0,cd8 <core_list_init+0x274>
     c34:	0a058463          	beqz	a1,cdc <core_list_init+0x278>
     c38:	06078263          	beqz	a5,c9c <core_list_init+0x238>
     c3c:	00472303          	lw	t1,4(a4)
     c40:	0046a803          	lw	a6,4(a3)
     c44:	00231e03          	lh	t3,2(t1)
     c48:	00081583          	lh	a1,0(a6)
     c4c:	00281e83          	lh	t4,2(a6)
     c50:	01059f93          	slli	t6,a1,0x10
     c54:	f005f893          	andi	a7,a1,-256
     c58:	018fd593          	srli	a1,t6,0x18
     c5c:	00b8e5b3          	or	a1,a7,a1
     c60:	00b81023          	sh	a1,0(a6)
     c64:	00031583          	lh	a1,0(t1)
     c68:	01059893          	slli	a7,a1,0x10
     c6c:	f005f813          	andi	a6,a1,-256
     c70:	0188d593          	srli	a1,a7,0x18
     c74:	00b865b3          	or	a1,a6,a1
     c78:	00b31023          	sh	a1,0(t1)
     c7c:	07de5c63          	bge	t3,t4,cf4 <core_list_init+0x290>
     c80:	00068593          	mv	a1,a3
     c84:	fff50513          	addi	a0,a0,-1
     c88:	00070693          	mv	a3,a4
     c8c:	00072703          	lw	a4,0(a4)
     c90:	f80616e3          	bnez	a2,c1c <core_list_init+0x1b8>
     c94:	00068413          	mv	s0,a3
     c98:	f89ff06f          	j	c20 <core_list_init+0x1bc>
     c9c:	00060793          	mv	a5,a2
     ca0:	0180006f          	j	cb8 <core_list_init+0x254>
     ca4:	00c7a023          	sw	a2,0(a5)
     ca8:	00e035b3          	snez	a1,a4
     cac:	00060793          	mv	a5,a2
     cb0:	02050463          	beqz	a0,cd8 <core_list_init+0x274>
     cb4:	02058463          	beqz	a1,cdc <core_list_init+0x278>
     cb8:	00070613          	mv	a2,a4
     cbc:	fff50513          	addi	a0,a0,-1
     cc0:	00072703          	lw	a4,0(a4)
     cc4:	fe0790e3          	bnez	a5,ca4 <core_list_init+0x240>
     cc8:	00060413          	mv	s0,a2
     ccc:	00e035b3          	snez	a1,a4
     cd0:	00060793          	mv	a5,a2
     cd4:	fe0510e3          	bnez	a0,cb4 <core_list_init+0x250>
     cd8:	f00592e3          	bnez	a1,bdc <core_list_init+0x178>
     cdc:	00062023          	sw	zero,0(a2)
     ce0:	04728463          	beq	t0,t2,d28 <core_list_init+0x2c4>
     ce4:	001f1f13          	slli	t5,t5,0x1
     ce8:	ee0412e3          	bnez	s0,bcc <core_list_init+0x168>
     cec:	00002023          	sw	zero,0(zero) # 0 <_start>
     cf0:	00100073          	ebreak
     cf4:	0006a583          	lw	a1,0(a3)
     cf8:	fff78793          	addi	a5,a5,-1
     cfc:	f20610e3          	bnez	a2,c1c <core_list_init+0x1b8>
     d00:	00068613          	mv	a2,a3
     d04:	00068413          	mv	s0,a3
     d08:	00058693          	mv	a3,a1
     d0c:	f2f04ae3          	bgtz	a5,c40 <core_list_init+0x1dc>
     d10:	f1dff06f          	j	c2c <core_list_init+0x1c8>
     d14:	00158593          	addi	a1,a1,1
     d18:	e4b502e3          	beq	a0,a1,b5c <core_list_init+0xf8>
     d1c:	00068313          	mv	t1,a3
     d20:	00070893          	mv	a7,a4
     d24:	e29ff06f          	j	b4c <core_list_init+0xe8>
     d28:	80000537          	lui	a0,0x80000
     d2c:	46050513          	addi	a0,a0,1120 # 80000460 <main+0x7fffad2c>
     d30:	250030ef          	jal	3f80 <ee_printf>
     d34:	02040663          	beqz	s0,d60 <core_list_init+0x2fc>
     d38:	80000937          	lui	s2,0x80000
     d3c:	47490913          	addi	s2,s2,1140 # 80000474 <main+0x7fffad40>
     d40:	00040493          	mv	s1,s0
     d44:	0044a783          	lw	a5,4(s1)
     d48:	00090513          	mv	a0,s2
     d4c:	0007d603          	lhu	a2,0(a5)
     d50:	00279583          	lh	a1,2(a5)
     d54:	22c030ef          	jal	3f80 <ee_printf>
     d58:	0004a483          	lw	s1,0(s1)
     d5c:	fe0494e3          	bnez	s1,d44 <core_list_init+0x2e0>
     d60:	80000537          	lui	a0,0x80000
     d64:	69c50513          	addi	a0,a0,1692 # 8000069c <main+0x7fffaf68>
     d68:	218030ef          	jal	3f80 <ee_printf>
     d6c:	01c12083          	lw	ra,28(sp)
     d70:	00040513          	mv	a0,s0
     d74:	01812403          	lw	s0,24(sp)
     d78:	01412483          	lw	s1,20(sp)
     d7c:	01012903          	lw	s2,16(sp)
     d80:	00c12983          	lw	s3,12(sp)
     d84:	02010113          	addi	sp,sp,32
     d88:	00008067          	ret
     d8c:	00048713          	mv	a4,s1
     d90:	00078693          	mv	a3,a5
     d94:	00000493          	li	s1,0
     d98:	d59ff06f          	j	af0 <core_list_init+0x8c>

00000d9c <core_list_insert_new>:
     d9c:	00062803          	lw	a6,0(a2)
     da0:	00880893          	addi	a7,a6,8
     da4:	04e8f663          	bgeu	a7,a4,df0 <core_list_insert_new+0x54>
     da8:	0006a703          	lw	a4,0(a3)
     dac:	00470313          	addi	t1,a4,4
     db0:	04f37063          	bgeu	t1,a5,df0 <core_list_insert_new+0x54>
     db4:	01162023          	sw	a7,0(a2)
     db8:	00052783          	lw	a5,0(a0)
     dbc:	00059883          	lh	a7,0(a1)
     dc0:	00259603          	lh	a2,2(a1)
     dc4:	00f82023          	sw	a5,0(a6)
     dc8:	01052023          	sw	a6,0(a0)
     dcc:	00e82223          	sw	a4,4(a6)
     dd0:	0006a783          	lw	a5,0(a3)
     dd4:	00080513          	mv	a0,a6
     dd8:	00478793          	addi	a5,a5,4
     ddc:	00f6a023          	sw	a5,0(a3)
     de0:	00482783          	lw	a5,4(a6)
     de4:	01179023          	sh	a7,0(a5)
     de8:	00c79123          	sh	a2,2(a5)
     dec:	00008067          	ret
     df0:	00000813          	li	a6,0
     df4:	00080513          	mv	a0,a6
     df8:	00008067          	ret

00000dfc <core_list_remove>:
     dfc:	00050793          	mv	a5,a0
     e00:	00052503          	lw	a0,0(a0)
     e04:	0047a683          	lw	a3,4(a5)
     e08:	00452603          	lw	a2,4(a0)
     e0c:	00052703          	lw	a4,0(a0)
     e10:	00c7a223          	sw	a2,4(a5)
     e14:	00d52223          	sw	a3,4(a0)
     e18:	00e7a023          	sw	a4,0(a5)
     e1c:	00052023          	sw	zero,0(a0)
     e20:	00008067          	ret

00000e24 <core_list_undo_remove>:
     e24:	0045a683          	lw	a3,4(a1)
     e28:	00452703          	lw	a4,4(a0)
     e2c:	0005a783          	lw	a5,0(a1)
     e30:	00d52223          	sw	a3,4(a0)
     e34:	00e5a223          	sw	a4,4(a1)
     e38:	00f52023          	sw	a5,0(a0)
     e3c:	00a5a023          	sw	a0,0(a1)
     e40:	00008067          	ret

00000e44 <core_list_find>:
     e44:	00259703          	lh	a4,2(a1)
     e48:	02074263          	bltz	a4,e6c <core_list_find+0x28>
     e4c:	00051863          	bnez	a0,e5c <core_list_find+0x18>
     e50:	00008067          	ret
     e54:	00052503          	lw	a0,0(a0)
     e58:	02050a63          	beqz	a0,e8c <core_list_find+0x48>
     e5c:	00452783          	lw	a5,4(a0)
     e60:	00279783          	lh	a5,2(a5)
     e64:	fee798e3          	bne	a5,a4,e54 <core_list_find+0x10>
     e68:	00008067          	ret
     e6c:	02050063          	beqz	a0,e8c <core_list_find+0x48>
     e70:	00059703          	lh	a4,0(a1)
     e74:	00c0006f          	j	e80 <core_list_find+0x3c>
     e78:	00052503          	lw	a0,0(a0)
     e7c:	00050863          	beqz	a0,e8c <core_list_find+0x48>
     e80:	00452783          	lw	a5,4(a0)
     e84:	0007c783          	lbu	a5,0(a5)
     e88:	fee798e3          	bne	a5,a4,e78 <core_list_find+0x34>
     e8c:	00008067          	ret

00000e90 <core_list_reverse>:
     e90:	02050063          	beqz	a0,eb0 <core_list_reverse+0x20>
     e94:	00000713          	li	a4,0
     e98:	0080006f          	j	ea0 <core_list_reverse+0x10>
     e9c:	00078513          	mv	a0,a5
     ea0:	00052783          	lw	a5,0(a0)
     ea4:	00e52023          	sw	a4,0(a0)
     ea8:	00050713          	mv	a4,a0
     eac:	fe0798e3          	bnez	a5,e9c <core_list_reverse+0xc>
     eb0:	00008067          	ret

00000eb4 <core_list_mergesort>:
     eb4:	fd010113          	addi	sp,sp,-48
     eb8:	03212023          	sw	s2,32(sp)
     ebc:	01512a23          	sw	s5,20(sp)
     ec0:	01612823          	sw	s6,16(sp)
     ec4:	01712623          	sw	s7,12(sp)
     ec8:	01a12023          	sw	s10,0(sp)
     ecc:	00100a93          	li	s5,1
     ed0:	02112623          	sw	ra,44(sp)
     ed4:	02812423          	sw	s0,40(sp)
     ed8:	02912223          	sw	s1,36(sp)
     edc:	01312e23          	sw	s3,28(sp)
     ee0:	01412c23          	sw	s4,24(sp)
     ee4:	01812423          	sw	s8,8(sp)
     ee8:	01912223          	sw	s9,4(sp)
     eec:	00050913          	mv	s2,a0
     ef0:	00058b93          	mv	s7,a1
     ef4:	00060b13          	mv	s6,a2
     ef8:	000a8d13          	mv	s10,s5
     efc:	0e090863          	beqz	s2,fec <core_list_mergesort+0x138>
     f00:	00000c93          	li	s9,0
     f04:	00000493          	li	s1,0
     f08:	00000c13          	li	s8,0
     f0c:	001c8c93          	addi	s9,s9,1
     f10:	00090793          	mv	a5,s2
     f14:	00000413          	li	s0,0
     f18:	01545863          	bge	s0,s5,f28 <core_list_mergesort+0x74>
     f1c:	0007a783          	lw	a5,0(a5)
     f20:	00140413          	addi	s0,s0,1
     f24:	fe079ae3          	bnez	a5,f18 <core_list_mergesort+0x64>
     f28:	00090993          	mv	s3,s2
     f2c:	000a8a13          	mv	s4,s5
     f30:	00078913          	mv	s2,a5
     f34:	02805463          	blez	s0,f5c <core_list_mergesort+0xa8>
     f38:	000a0463          	beqz	s4,f40 <core_list_mergesort+0x8c>
     f3c:	02091863          	bnez	s2,f6c <core_list_mergesort+0xb8>
     f40:	00048793          	mv	a5,s1
     f44:	fff40413          	addi	s0,s0,-1
     f48:	00098493          	mv	s1,s3
     f4c:	0009a983          	lw	s3,0(s3) # 80000000 <main+0x7fffa8cc>
     f50:	04078263          	beqz	a5,f94 <core_list_mergesort+0xe0>
     f54:	0097a023          	sw	s1,0(a5)
     f58:	fe8040e3          	bgtz	s0,f38 <core_list_mergesort+0x84>
     f5c:	012037b3          	snez	a5,s2
     f60:	07405a63          	blez	s4,fd4 <core_list_mergesort+0x120>
     f64:	06078a63          	beqz	a5,fd8 <core_list_mergesort+0x124>
     f68:	04040463          	beqz	s0,fb0 <core_list_mergesort+0xfc>
     f6c:	00492583          	lw	a1,4(s2)
     f70:	0049a503          	lw	a0,4(s3)
     f74:	000b0613          	mv	a2,s6
     f78:	000b80e7          	jalr	s7
     f7c:	06a05c63          	blez	a0,ff4 <core_list_mergesort+0x140>
     f80:	00048793          	mv	a5,s1
     f84:	fffa0a13          	addi	s4,s4,-1
     f88:	00090493          	mv	s1,s2
     f8c:	00092903          	lw	s2,0(s2)
     f90:	fc0792e3          	bnez	a5,f54 <core_list_mergesort+0xa0>
     f94:	00048c13          	mv	s8,s1
     f98:	f9dff06f          	j	f34 <core_list_mergesort+0x80>
     f9c:	00e4a023          	sw	a4,0(s1)
     fa0:	012037b3          	snez	a5,s2
     fa4:	00070493          	mv	s1,a4
     fa8:	020a0463          	beqz	s4,fd0 <core_list_mergesort+0x11c>
     fac:	02078263          	beqz	a5,fd0 <core_list_mergesort+0x11c>
     fb0:	00090713          	mv	a4,s2
     fb4:	fffa0a13          	addi	s4,s4,-1
     fb8:	00092903          	lw	s2,0(s2)
     fbc:	fe0490e3          	bnez	s1,f9c <core_list_mergesort+0xe8>
     fc0:	00070c13          	mv	s8,a4
     fc4:	012037b3          	snez	a5,s2
     fc8:	00070493          	mv	s1,a4
     fcc:	fe0a10e3          	bnez	s4,fac <core_list_mergesort+0xf8>
     fd0:	00070493          	mv	s1,a4
     fd4:	f2079ce3          	bnez	a5,f0c <core_list_mergesort+0x58>
     fd8:	0004a023          	sw	zero,0(s1)
     fdc:	05ac8663          	beq	s9,s10,1028 <core_list_mergesort+0x174>
     fe0:	000c0913          	mv	s2,s8
     fe4:	001a9a93          	slli	s5,s5,0x1
     fe8:	f0091ce3          	bnez	s2,f00 <core_list_mergesort+0x4c>
     fec:	00002023          	sw	zero,0(zero) # 0 <_start>
     ff0:	00100073          	ebreak
     ff4:	0009a703          	lw	a4,0(s3)
     ff8:	fff40413          	addi	s0,s0,-1
     ffc:	00048c63          	beqz	s1,1014 <core_list_mergesort+0x160>
    1000:	00048793          	mv	a5,s1
    1004:	00098493          	mv	s1,s3
    1008:	0097a023          	sw	s1,0(a5)
    100c:	00070993          	mv	s3,a4
    1010:	f49ff06f          	j	f58 <core_list_mergesort+0xa4>
    1014:	00098c13          	mv	s8,s3
    1018:	00098493          	mv	s1,s3
    101c:	00070993          	mv	s3,a4
    1020:	f48046e3          	bgtz	s0,f6c <core_list_mergesort+0xb8>
    1024:	f39ff06f          	j	f5c <core_list_mergesort+0xa8>
    1028:	02c12083          	lw	ra,44(sp)
    102c:	02812403          	lw	s0,40(sp)
    1030:	02412483          	lw	s1,36(sp)
    1034:	02012903          	lw	s2,32(sp)
    1038:	01c12983          	lw	s3,28(sp)
    103c:	01812a03          	lw	s4,24(sp)
    1040:	01412a83          	lw	s5,20(sp)
    1044:	01012b03          	lw	s6,16(sp)
    1048:	00c12b83          	lw	s7,12(sp)
    104c:	00412c83          	lw	s9,4(sp)
    1050:	00012d03          	lw	s10,0(sp)
    1054:	000c0513          	mv	a0,s8
    1058:	00812c03          	lw	s8,8(sp)
    105c:	03010113          	addi	sp,sp,48
    1060:	00008067          	ret

00001064 <iterate>:
    1064:	ff010113          	addi	sp,sp,-16
    1068:	01212023          	sw	s2,0(sp)
    106c:	01c52903          	lw	s2,28(a0)
    1070:	00112623          	sw	ra,12(sp)
    1074:	02052c23          	sw	zero,56(a0)
    1078:	02052e23          	sw	zero,60(a0)
    107c:	08090a63          	beqz	s2,1110 <iterate+0xac>
    1080:	00100593          	li	a1,1
    1084:	00812423          	sw	s0,8(sp)
    1088:	00912223          	sw	s1,4(sp)
    108c:	00050413          	mv	s0,a0
    1090:	c18ff0ef          	jal	4a8 <core_bench_list>
    1094:	03845583          	lhu	a1,56(s0)
    1098:	00100493          	li	s1,1
    109c:	701010ef          	jal	2f9c <crcu16>
    10a0:	02a41c23          	sh	a0,56(s0)
    10a4:	fff00593          	li	a1,-1
    10a8:	00040513          	mv	a0,s0
    10ac:	bfcff0ef          	jal	4a8 <core_bench_list>
    10b0:	03845583          	lhu	a1,56(s0)
    10b4:	6e9010ef          	jal	2f9c <crcu16>
    10b8:	01051793          	slli	a5,a0,0x10
    10bc:	0107d793          	srli	a5,a5,0x10
    10c0:	01051513          	slli	a0,a0,0x10
    10c4:	00a7e7b3          	or	a5,a5,a0
    10c8:	02f42c23          	sw	a5,56(s0)
    10cc:	02990e63          	beq	s2,s1,1108 <iterate+0xa4>
    10d0:	00100593          	li	a1,1
    10d4:	00040513          	mv	a0,s0
    10d8:	bd0ff0ef          	jal	4a8 <core_bench_list>
    10dc:	03845583          	lhu	a1,56(s0)
    10e0:	00148493          	addi	s1,s1,1
    10e4:	6b9010ef          	jal	2f9c <crcu16>
    10e8:	02a41c23          	sh	a0,56(s0)
    10ec:	fff00593          	li	a1,-1
    10f0:	00040513          	mv	a0,s0
    10f4:	bb4ff0ef          	jal	4a8 <core_bench_list>
    10f8:	03845583          	lhu	a1,56(s0)
    10fc:	6a1010ef          	jal	2f9c <crcu16>
    1100:	02a41c23          	sh	a0,56(s0)
    1104:	fc9916e3          	bne	s2,s1,10d0 <iterate+0x6c>
    1108:	00812403          	lw	s0,8(sp)
    110c:	00412483          	lw	s1,4(sp)
    1110:	00c12083          	lw	ra,12(sp)
    1114:	00012903          	lw	s2,0(sp)
    1118:	00000513          	li	a0,0
    111c:	01010113          	addi	sp,sp,16
    1120:	00008067          	ret

00001124 <printmat>:
    1124:	fd010113          	addi	sp,sp,-48
    1128:	03212023          	sw	s2,32(sp)
    112c:	800017b7          	lui	a5,0x80001
    1130:	00058913          	mv	s2,a1
    1134:	01512a23          	sw	s5,20(sp)
    1138:	00060593          	mv	a1,a2
    113c:	00050a93          	mv	s5,a0
    1140:	00090693          	mv	a3,s2
    1144:	00090613          	mv	a2,s2
    1148:	87c78513          	addi	a0,a5,-1924 # 8000087c <main+0x7fffb148>
    114c:	02112623          	sw	ra,44(sp)
    1150:	631020ef          	jal	3f80 <ee_printf>
    1154:	0a090a63          	beqz	s2,1208 <printmat+0xe4>
    1158:	01312e23          	sw	s3,28(sp)
    115c:	01412c23          	sw	s4,24(sp)
    1160:	01712623          	sw	s7,12(sp)
    1164:	800019b7          	lui	s3,0x80001
    1168:	80000bb7          	lui	s7,0x80000
    116c:	80001a37          	lui	s4,0x80001
    1170:	01612823          	sw	s6,16(sp)
    1174:	01812423          	sw	s8,8(sp)
    1178:	01912223          	sw	s9,4(sp)
    117c:	02812423          	sw	s0,40(sp)
    1180:	02912223          	sw	s1,36(sp)
    1184:	89498993          	addi	s3,s3,-1900 # 80000894 <main+0x7fffb160>
    1188:	69cb8b93          	addi	s7,s7,1692 # 8000069c <main+0x7fffaf68>
    118c:	890a0a13          	addi	s4,s4,-1904 # 80000890 <main+0x7fffb15c>
    1190:	00191c93          	slli	s9,s2,0x1
    1194:	00000b13          	li	s6,0
    1198:	00100c13          	li	s8,1
    119c:	000a9583          	lh	a1,0(s5)
    11a0:	00098513          	mv	a0,s3
    11a4:	000a8493          	mv	s1,s5
    11a8:	5d9020ef          	jal	3f80 <ee_printf>
    11ac:	00100413          	li	s0,1
    11b0:	03890263          	beq	s2,s8,11d4 <printmat+0xb0>
    11b4:	000a0513          	mv	a0,s4
    11b8:	5c9020ef          	jal	3f80 <ee_printf>
    11bc:	00249583          	lh	a1,2(s1)
    11c0:	00098513          	mv	a0,s3
    11c4:	00140413          	addi	s0,s0,1
    11c8:	5b9020ef          	jal	3f80 <ee_printf>
    11cc:	00248493          	addi	s1,s1,2
    11d0:	fe8912e3          	bne	s2,s0,11b4 <printmat+0x90>
    11d4:	000b8513          	mv	a0,s7
    11d8:	001b0b13          	addi	s6,s6,1
    11dc:	5a5020ef          	jal	3f80 <ee_printf>
    11e0:	019a8ab3          	add	s5,s5,s9
    11e4:	fb691ce3          	bne	s2,s6,119c <printmat+0x78>
    11e8:	02812403          	lw	s0,40(sp)
    11ec:	02412483          	lw	s1,36(sp)
    11f0:	01c12983          	lw	s3,28(sp)
    11f4:	01812a03          	lw	s4,24(sp)
    11f8:	01012b03          	lw	s6,16(sp)
    11fc:	00c12b83          	lw	s7,12(sp)
    1200:	00812c03          	lw	s8,8(sp)
    1204:	00412c83          	lw	s9,4(sp)
    1208:	02c12083          	lw	ra,44(sp)
    120c:	02012903          	lw	s2,32(sp)
    1210:	01412a83          	lw	s5,20(sp)
    1214:	03010113          	addi	sp,sp,48
    1218:	00008067          	ret

0000121c <printmatC>:
    121c:	fd010113          	addi	sp,sp,-48
    1220:	03212023          	sw	s2,32(sp)
    1224:	800017b7          	lui	a5,0x80001
    1228:	00058913          	mv	s2,a1
    122c:	01512a23          	sw	s5,20(sp)
    1230:	00060593          	mv	a1,a2
    1234:	00050a93          	mv	s5,a0
    1238:	00090693          	mv	a3,s2
    123c:	00090613          	mv	a2,s2
    1240:	87c78513          	addi	a0,a5,-1924 # 8000087c <main+0x7fffb148>
    1244:	02112623          	sw	ra,44(sp)
    1248:	539020ef          	jal	3f80 <ee_printf>
    124c:	0a090a63          	beqz	s2,1300 <printmatC+0xe4>
    1250:	01312e23          	sw	s3,28(sp)
    1254:	01412c23          	sw	s4,24(sp)
    1258:	01712623          	sw	s7,12(sp)
    125c:	800019b7          	lui	s3,0x80001
    1260:	80000bb7          	lui	s7,0x80000
    1264:	80001a37          	lui	s4,0x80001
    1268:	01612823          	sw	s6,16(sp)
    126c:	01812423          	sw	s8,8(sp)
    1270:	01912223          	sw	s9,4(sp)
    1274:	02812423          	sw	s0,40(sp)
    1278:	02912223          	sw	s1,36(sp)
    127c:	89498993          	addi	s3,s3,-1900 # 80000894 <main+0x7fffb160>
    1280:	69cb8b93          	addi	s7,s7,1692 # 8000069c <main+0x7fffaf68>
    1284:	890a0a13          	addi	s4,s4,-1904 # 80000890 <main+0x7fffb15c>
    1288:	00291c93          	slli	s9,s2,0x2
    128c:	00000b13          	li	s6,0
    1290:	00100c13          	li	s8,1
    1294:	000aa583          	lw	a1,0(s5)
    1298:	00098513          	mv	a0,s3
    129c:	000a8493          	mv	s1,s5
    12a0:	4e1020ef          	jal	3f80 <ee_printf>
    12a4:	00100413          	li	s0,1
    12a8:	03890263          	beq	s2,s8,12cc <printmatC+0xb0>
    12ac:	000a0513          	mv	a0,s4
    12b0:	4d1020ef          	jal	3f80 <ee_printf>
    12b4:	0044a583          	lw	a1,4(s1)
    12b8:	00098513          	mv	a0,s3
    12bc:	00140413          	addi	s0,s0,1
    12c0:	4c1020ef          	jal	3f80 <ee_printf>
    12c4:	00448493          	addi	s1,s1,4
    12c8:	fe8912e3          	bne	s2,s0,12ac <printmatC+0x90>
    12cc:	000b8513          	mv	a0,s7
    12d0:	001b0b13          	addi	s6,s6,1
    12d4:	4ad020ef          	jal	3f80 <ee_printf>
    12d8:	019a8ab3          	add	s5,s5,s9
    12dc:	fb691ce3          	bne	s2,s6,1294 <printmatC+0x78>
    12e0:	02812403          	lw	s0,40(sp)
    12e4:	02412483          	lw	s1,36(sp)
    12e8:	01c12983          	lw	s3,28(sp)
    12ec:	01812a03          	lw	s4,24(sp)
    12f0:	01012b03          	lw	s6,16(sp)
    12f4:	00c12b83          	lw	s7,12(sp)
    12f8:	00812c03          	lw	s8,8(sp)
    12fc:	00412c83          	lw	s9,4(sp)
    1300:	02c12083          	lw	ra,44(sp)
    1304:	02012903          	lw	s2,32(sp)
    1308:	01412a83          	lw	s5,20(sp)
    130c:	03010113          	addi	sp,sp,48
    1310:	00008067          	ret

00001314 <matrix_test>:
    1314:	f9010113          	addi	sp,sp,-112
    1318:	06112623          	sw	ra,108(sp)
    131c:	06812423          	sw	s0,104(sp)
    1320:	06912223          	sw	s1,100(sp)
    1324:	00b12a23          	sw	a1,20(sp)
    1328:	02c12423          	sw	a2,40(sp)
    132c:	02d12223          	sw	a3,36(sp)
    1330:	0a0500e3          	beqz	a0,1bd0 <matrix_test+0x8bc>
    1334:	00151493          	slli	s1,a0,0x1
    1338:	07212023          	sw	s2,96(sp)
    133c:	05312e23          	sw	s3,92(sp)
    1340:	fffff937          	lui	s2,0xfffff
    1344:	009609b3          	add	s3,a2,s1
    1348:	05412c23          	sw	s4,88(sp)
    134c:	05612823          	sw	s6,80(sp)
    1350:	05512a23          	sw	s5,84(sp)
    1354:	05712623          	sw	s7,76(sp)
    1358:	05812423          	sw	s8,72(sp)
    135c:	05912223          	sw	s9,68(sp)
    1360:	05a12023          	sw	s10,64(sp)
    1364:	03b12e23          	sw	s11,60(sp)
    1368:	00070b13          	mv	s6,a4
    136c:	00098693          	mv	a3,s3
    1370:	01276933          	or	s2,a4,s2
    1374:	00000a13          	li	s4,0
    1378:	409687b3          	sub	a5,a3,s1
    137c:	0007d703          	lhu	a4,0(a5)
    1380:	00278793          	addi	a5,a5,2
    1384:	00eb0733          	add	a4,s6,a4
    1388:	fee79f23          	sh	a4,-2(a5)
    138c:	fef698e3          	bne	a3,a5,137c <matrix_test+0x68>
    1390:	001a0413          	addi	s0,s4,1
    1394:	009686b3          	add	a3,a3,s1
    1398:	00850663          	beq	a0,s0,13a4 <matrix_test+0x90>
    139c:	00040a13          	mv	s4,s0
    13a0:	fd9ff06f          	j	1378 <matrix_test+0x64>
    13a4:	800017b7          	lui	a5,0x80001
    13a8:	800015b7          	lui	a1,0x80001
    13ac:	87c78513          	addi	a0,a5,-1924 # 8000087c <main+0x7fffb148>
    13b0:	89858593          	addi	a1,a1,-1896 # 80000898 <main+0x7fffb164>
    13b4:	00040693          	mv	a3,s0
    13b8:	00040613          	mv	a2,s0
    13bc:	3c5020ef          	jal	3f80 <ee_printf>
    13c0:	02812783          	lw	a5,40(sp)
    13c4:	02812c03          	lw	s8,40(sp)
    13c8:	80001737          	lui	a4,0x80001
    13cc:	ffe78a93          	addi	s5,a5,-2
    13d0:	800017b7          	lui	a5,0x80001
    13d4:	009a8ab3          	add	s5,s5,s1
    13d8:	89470b93          	addi	s7,a4,-1900 # 80000894 <main+0x7fffb160>
    13dc:	89078d93          	addi	s11,a5,-1904 # 80000890 <main+0x7fffb15c>
    13e0:	00000d13          	li	s10,0
    13e4:	000c1583          	lh	a1,0(s8)
    13e8:	000b8513          	mv	a0,s7
    13ec:	000c0c93          	mv	s9,s8
    13f0:	391020ef          	jal	3f80 <ee_printf>
    13f4:	00100793          	li	a5,1
    13f8:	02f40063          	beq	s0,a5,1418 <matrix_test+0x104>
    13fc:	000d8513          	mv	a0,s11
    1400:	381020ef          	jal	3f80 <ee_printf>
    1404:	002c9583          	lh	a1,2(s9)
    1408:	000b8513          	mv	a0,s7
    140c:	002c8c93          	addi	s9,s9,2
    1410:	371020ef          	jal	3f80 <ee_printf>
    1414:	ff9a94e3          	bne	s5,s9,13fc <matrix_test+0xe8>
    1418:	800007b7          	lui	a5,0x80000
    141c:	69c78513          	addi	a0,a5,1692 # 8000069c <main+0x7fffaf68>
    1420:	361020ef          	jal	3f80 <ee_printf>
    1424:	009c0c33          	add	s8,s8,s1
    1428:	009a8ab3          	add	s5,s5,s1
    142c:	01aa0663          	beq	s4,s10,1438 <matrix_test+0x124>
    1430:	001d0d13          	addi	s10,s10,1
    1434:	fb1ff06f          	j	13e4 <matrix_test+0xd0>
    1438:	00000a93          	li	s5,0
    143c:	00000b93          	li	s7,0
    1440:	01412783          	lw	a5,20(sp)
    1444:	002a9d93          	slli	s11,s5,0x2
    1448:	40998c33          	sub	s8,s3,s1
    144c:	01b78db3          	add	s11,a5,s11
    1450:	00f12c23          	sw	a5,24(sp)
    1454:	000c1503          	lh	a0,0(s8)
    1458:	000b0593          	mv	a1,s6
    145c:	002c0c13          	addi	s8,s8,2
    1460:	1fc040ef          	jal	565c <__mulsi3>
    1464:	00ada023          	sw	a0,0(s11)
    1468:	004d8d93          	addi	s11,s11,4
    146c:	ff8994e3          	bne	s3,s8,1454 <matrix_test+0x140>
    1470:	008a8ab3          	add	s5,s5,s0
    1474:	009989b3          	add	s3,s3,s1
    1478:	014b8663          	beq	s7,s4,1484 <matrix_test+0x170>
    147c:	001b8b93          	addi	s7,s7,1
    1480:	fc1ff06f          	j	1440 <matrix_test+0x12c>
    1484:	01412783          	lw	a5,20(sp)
    1488:	00241b93          	slli	s7,s0,0x2
    148c:	00000713          	li	a4,0
    1490:	01778833          	add	a6,a5,s7
    1494:	00000613          	li	a2,0
    1498:	00000513          	li	a0,0
    149c:	00000893          	li	a7,0
    14a0:	417807b3          	sub	a5,a6,s7
    14a4:	00070693          	mv	a3,a4
    14a8:	0007a703          	lw	a4,0(a5)
    14ac:	00a50593          	addi	a1,a0,10
    14b0:	00478793          	addi	a5,a5,4
    14b4:	00e6a6b3          	slt	a3,a3,a4
    14b8:	00e60633          	add	a2,a2,a4
    14bc:	00d50533          	add	a0,a0,a3
    14c0:	02c94863          	blt	s2,a2,14f0 <matrix_test+0x1dc>
    14c4:	01051513          	slli	a0,a0,0x10
    14c8:	41055513          	srai	a0,a0,0x10
    14cc:	03078a63          	beq	a5,a6,1500 <matrix_test+0x1ec>
    14d0:	00070693          	mv	a3,a4
    14d4:	0007a703          	lw	a4,0(a5)
    14d8:	00a50593          	addi	a1,a0,10
    14dc:	00478793          	addi	a5,a5,4
    14e0:	00e6a6b3          	slt	a3,a3,a4
    14e4:	00e60633          	add	a2,a2,a4
    14e8:	00d50533          	add	a0,a0,a3
    14ec:	fcc95ce3          	bge	s2,a2,14c4 <matrix_test+0x1b0>
    14f0:	01059513          	slli	a0,a1,0x10
    14f4:	41055513          	srai	a0,a0,0x10
    14f8:	00000613          	li	a2,0
    14fc:	fd079ae3          	bne	a5,a6,14d0 <matrix_test+0x1bc>
    1500:	01780833          	add	a6,a6,s7
    1504:	011a0663          	beq	s4,a7,1510 <matrix_test+0x1fc>
    1508:	00188893          	addi	a7,a7,1
    150c:	f95ff06f          	j	14a0 <matrix_test+0x18c>
    1510:	00000593          	li	a1,0
    1514:	0d0020ef          	jal	35e4 <crc16>
    1518:	800017b7          	lui	a5,0x80001
    151c:	800015b7          	lui	a1,0x80001
    1520:	00a12623          	sw	a0,12(sp)
    1524:	00040693          	mv	a3,s0
    1528:	87c78513          	addi	a0,a5,-1924 # 8000087c <main+0x7fffb148>
    152c:	00040613          	mv	a2,s0
    1530:	8ac58593          	addi	a1,a1,-1876 # 800008ac <main+0x7fffb178>
    1534:	24d020ef          	jal	3f80 <ee_printf>
    1538:	01412783          	lw	a5,20(sp)
    153c:	01412d83          	lw	s11,20(sp)
    1540:	80001737          	lui	a4,0x80001
    1544:	ffc78c13          	addi	s8,a5,-4
    1548:	017c07b3          	add	a5,s8,s7
    154c:	00f12823          	sw	a5,16(sp)
    1550:	01012983          	lw	s3,16(sp)
    1554:	800017b7          	lui	a5,0x80001
    1558:	89470a93          	addi	s5,a4,-1900 # 80000894 <main+0x7fffb160>
    155c:	89078c93          	addi	s9,a5,-1904 # 80000890 <main+0x7fffb15c>
    1560:	00000d13          	li	s10,0
    1564:	000da583          	lw	a1,0(s11)
    1568:	000a8513          	mv	a0,s5
    156c:	000d8c13          	mv	s8,s11
    1570:	211020ef          	jal	3f80 <ee_printf>
    1574:	00100793          	li	a5,1
    1578:	02f40063          	beq	s0,a5,1598 <matrix_test+0x284>
    157c:	000c8513          	mv	a0,s9
    1580:	201020ef          	jal	3f80 <ee_printf>
    1584:	004c2583          	lw	a1,4(s8)
    1588:	000a8513          	mv	a0,s5
    158c:	004c0c13          	addi	s8,s8,4
    1590:	1f1020ef          	jal	3f80 <ee_printf>
    1594:	ff3c14e3          	bne	s8,s3,157c <matrix_test+0x268>
    1598:	800007b7          	lui	a5,0x80000
    159c:	69c78513          	addi	a0,a5,1692 # 8000069c <main+0x7fffaf68>
    15a0:	1e1020ef          	jal	3f80 <ee_printf>
    15a4:	017d8db3          	add	s11,s11,s7
    15a8:	017989b3          	add	s3,s3,s7
    15ac:	01aa0663          	beq	s4,s10,15b8 <matrix_test+0x2a4>
    15b0:	001d0d13          	addi	s10,s10,1
    15b4:	fb1ff06f          	j	1564 <matrix_test+0x250>
    15b8:	01412a83          	lw	s5,20(sp)
    15bc:	00000a13          	li	s4,0
    15c0:	00000993          	li	s3,0
    15c4:	02812783          	lw	a5,40(sp)
    15c8:	02412d03          	lw	s10,36(sp)
    15cc:	001a1d93          	slli	s11,s4,0x1
    15d0:	01b78db3          	add	s11,a5,s11
    15d4:	00000c13          	li	s8,0
    15d8:	00000c93          	li	s9,0
    15dc:	000d1583          	lh	a1,0(s10)
    15e0:	000d9503          	lh	a0,0(s11)
    15e4:	001c8c93          	addi	s9,s9,1
    15e8:	002d8d93          	addi	s11,s11,2
    15ec:	070040ef          	jal	565c <__mulsi3>
    15f0:	002d0d13          	addi	s10,s10,2
    15f4:	00ac0c33          	add	s8,s8,a0
    15f8:	fe8ce2e3          	bltu	s9,s0,15dc <matrix_test+0x2c8>
    15fc:	018aa023          	sw	s8,0(s5)
    1600:	00198993          	addi	s3,s3,1
    1604:	004a8a93          	addi	s5,s5,4
    1608:	008a0a33          	add	s4,s4,s0
    160c:	fa89ece3          	bltu	s3,s0,15c4 <matrix_test+0x2b0>
    1610:	00000313          	li	t1,0
    1614:	00000793          	li	a5,0
    1618:	00000693          	li	a3,0
    161c:	00000513          	li	a0,0
    1620:	00000893          	li	a7,0
    1624:	00078713          	mv	a4,a5
    1628:	01412783          	lw	a5,20(sp)
    162c:	00231613          	slli	a2,t1,0x2
    1630:	00000593          	li	a1,0
    1634:	00c78633          	add	a2,a5,a2
    1638:	00062783          	lw	a5,0(a2)
    163c:	00a50813          	addi	a6,a0,10
    1640:	00158593          	addi	a1,a1,1
    1644:	00f72733          	slt	a4,a4,a5
    1648:	00f686b3          	add	a3,a3,a5
    164c:	00e50533          	add	a0,a0,a4
    1650:	02d94a63          	blt	s2,a3,1684 <matrix_test+0x370>
    1654:	01051513          	slli	a0,a0,0x10
    1658:	41055513          	srai	a0,a0,0x10
    165c:	0485f463          	bgeu	a1,s0,16a4 <matrix_test+0x390>
    1660:	00460613          	addi	a2,a2,4
    1664:	00078713          	mv	a4,a5
    1668:	00062783          	lw	a5,0(a2)
    166c:	00a50813          	addi	a6,a0,10
    1670:	00158593          	addi	a1,a1,1
    1674:	00f72733          	slt	a4,a4,a5
    1678:	00f686b3          	add	a3,a3,a5
    167c:	00e50533          	add	a0,a0,a4
    1680:	fcd95ae3          	bge	s2,a3,1654 <matrix_test+0x340>
    1684:	01081513          	slli	a0,a6,0x10
    1688:	41055513          	srai	a0,a0,0x10
    168c:	0085fa63          	bgeu	a1,s0,16a0 <matrix_test+0x38c>
    1690:	00460613          	addi	a2,a2,4
    1694:	00000693          	li	a3,0
    1698:	00078713          	mv	a4,a5
    169c:	fcdff06f          	j	1668 <matrix_test+0x354>
    16a0:	00000693          	li	a3,0
    16a4:	00188893          	addi	a7,a7,1
    16a8:	00830333          	add	t1,t1,s0
    16ac:	f688ece3          	bltu	a7,s0,1624 <matrix_test+0x310>
    16b0:	00c12583          	lw	a1,12(sp)
    16b4:	80001a37          	lui	s4,0x80001
    16b8:	72d010ef          	jal	35e4 <crc16>
    16bc:	800017b7          	lui	a5,0x80001
    16c0:	800015b7          	lui	a1,0x80001
    16c4:	02a12623          	sw	a0,44(sp)
    16c8:	00040693          	mv	a3,s0
    16cc:	00040613          	mv	a2,s0
    16d0:	87c78513          	addi	a0,a5,-1924 # 8000087c <main+0x7fffb148>
    16d4:	8c058593          	addi	a1,a1,-1856 # 800008c0 <main+0x7fffb18c>
    16d8:	0a9020ef          	jal	3f80 <ee_printf>
    16dc:	01412783          	lw	a5,20(sp)
    16e0:	894a0513          	addi	a0,s4,-1900 # 80000894 <main+0x7fffb160>
    16e4:	0007a583          	lw	a1,0(a5)
    16e8:	099020ef          	jal	3f80 <ee_printf>
    16ec:	00100793          	li	a5,1
    16f0:	06f40463          	beq	s0,a5,1758 <matrix_test+0x444>
    16f4:	800019b7          	lui	s3,0x80001
    16f8:	89098c93          	addi	s9,s3,-1904 # 80000890 <main+0x7fffb15c>
    16fc:	01412a83          	lw	s5,20(sp)
    1700:	01012983          	lw	s3,16(sp)
    1704:	00000d93          	li	s11,0
    1708:	894a0a13          	addi	s4,s4,-1900
    170c:	000a8c13          	mv	s8,s5
    1710:	000c8513          	mv	a0,s9
    1714:	06d020ef          	jal	3f80 <ee_printf>
    1718:	004c2583          	lw	a1,4(s8)
    171c:	000a0513          	mv	a0,s4
    1720:	004c0c13          	addi	s8,s8,4
    1724:	05d020ef          	jal	3f80 <ee_printf>
    1728:	ff3c14e3          	bne	s8,s3,1710 <matrix_test+0x3fc>
    172c:	800007b7          	lui	a5,0x80000
    1730:	69c78513          	addi	a0,a5,1692 # 8000069c <main+0x7fffaf68>
    1734:	001d8d93          	addi	s11,s11,1
    1738:	049020ef          	jal	3f80 <ee_printf>
    173c:	028df463          	bgeu	s11,s0,1764 <matrix_test+0x450>
    1740:	017a8ab3          	add	s5,s5,s7
    1744:	000aa583          	lw	a1,0(s5)
    1748:	000a0513          	mv	a0,s4
    174c:	017989b3          	add	s3,s3,s7
    1750:	031020ef          	jal	3f80 <ee_printf>
    1754:	fb9ff06f          	j	170c <matrix_test+0x3f8>
    1758:	800007b7          	lui	a5,0x80000
    175c:	69c78513          	addi	a0,a5,1692 # 8000069c <main+0x7fffaf68>
    1760:	021020ef          	jal	3f80 <ee_printf>
    1764:	01412783          	lw	a5,20(sp)
    1768:	00012e23          	sw	zero,28(sp)
    176c:	02f12023          	sw	a5,32(sp)
    1770:	02812783          	lw	a5,40(sp)
    1774:	00f12623          	sw	a5,12(sp)
    1778:	02412a83          	lw	s5,36(sp)
    177c:	02012a03          	lw	s4,32(sp)
    1780:	00000993          	li	s3,0
    1784:	00c12d03          	lw	s10,12(sp)
    1788:	000a8d93          	mv	s11,s5
    178c:	00000c13          	li	s8,0
    1790:	00000c93          	li	s9,0
    1794:	000d9583          	lh	a1,0(s11)
    1798:	000d1503          	lh	a0,0(s10)
    179c:	001c8c93          	addi	s9,s9,1
    17a0:	002d0d13          	addi	s10,s10,2
    17a4:	6b9030ef          	jal	565c <__mulsi3>
    17a8:	009d8db3          	add	s11,s11,s1
    17ac:	00ac0c33          	add	s8,s8,a0
    17b0:	fe8ce2e3          	bltu	s9,s0,1794 <matrix_test+0x480>
    17b4:	018a2023          	sw	s8,0(s4)
    17b8:	00198993          	addi	s3,s3,1
    17bc:	004a0a13          	addi	s4,s4,4
    17c0:	002a8a93          	addi	s5,s5,2
    17c4:	fc89e0e3          	bltu	s3,s0,1784 <matrix_test+0x470>
    17c8:	01c12783          	lw	a5,28(sp)
    17cc:	00178793          	addi	a5,a5,1
    17d0:	00f12e23          	sw	a5,28(sp)
    17d4:	00c12783          	lw	a5,12(sp)
    17d8:	009787b3          	add	a5,a5,s1
    17dc:	00f12623          	sw	a5,12(sp)
    17e0:	02012783          	lw	a5,32(sp)
    17e4:	017787b3          	add	a5,a5,s7
    17e8:	02f12023          	sw	a5,32(sp)
    17ec:	01c12783          	lw	a5,28(sp)
    17f0:	f887e4e3          	bltu	a5,s0,1778 <matrix_test+0x464>
    17f4:	00000313          	li	t1,0
    17f8:	00000793          	li	a5,0
    17fc:	00000693          	li	a3,0
    1800:	00000513          	li	a0,0
    1804:	00000893          	li	a7,0
    1808:	00078713          	mv	a4,a5
    180c:	01412783          	lw	a5,20(sp)
    1810:	00231613          	slli	a2,t1,0x2
    1814:	00000593          	li	a1,0
    1818:	00c78633          	add	a2,a5,a2
    181c:	00062783          	lw	a5,0(a2)
    1820:	00a50813          	addi	a6,a0,10
    1824:	00158593          	addi	a1,a1,1
    1828:	00f72733          	slt	a4,a4,a5
    182c:	00f686b3          	add	a3,a3,a5
    1830:	00e50533          	add	a0,a0,a4
    1834:	02d94a63          	blt	s2,a3,1868 <matrix_test+0x554>
    1838:	01051513          	slli	a0,a0,0x10
    183c:	41055513          	srai	a0,a0,0x10
    1840:	0485f463          	bgeu	a1,s0,1888 <matrix_test+0x574>
    1844:	00460613          	addi	a2,a2,4
    1848:	00078713          	mv	a4,a5
    184c:	00062783          	lw	a5,0(a2)
    1850:	00a50813          	addi	a6,a0,10
    1854:	00158593          	addi	a1,a1,1
    1858:	00f72733          	slt	a4,a4,a5
    185c:	00f686b3          	add	a3,a3,a5
    1860:	00e50533          	add	a0,a0,a4
    1864:	fcd95ae3          	bge	s2,a3,1838 <matrix_test+0x524>
    1868:	01081513          	slli	a0,a6,0x10
    186c:	41055513          	srai	a0,a0,0x10
    1870:	0085fa63          	bgeu	a1,s0,1884 <matrix_test+0x570>
    1874:	00460613          	addi	a2,a2,4
    1878:	00000693          	li	a3,0
    187c:	00078713          	mv	a4,a5
    1880:	fcdff06f          	j	184c <matrix_test+0x538>
    1884:	00000693          	li	a3,0
    1888:	00188893          	addi	a7,a7,1
    188c:	00830333          	add	t1,t1,s0
    1890:	f688ece3          	bltu	a7,s0,1808 <matrix_test+0x4f4>
    1894:	02c12583          	lw	a1,44(sp)
    1898:	80001a37          	lui	s4,0x80001
    189c:	549010ef          	jal	35e4 <crc16>
    18a0:	800017b7          	lui	a5,0x80001
    18a4:	800015b7          	lui	a1,0x80001
    18a8:	02a12623          	sw	a0,44(sp)
    18ac:	00040693          	mv	a3,s0
    18b0:	00040613          	mv	a2,s0
    18b4:	87c78513          	addi	a0,a5,-1924 # 8000087c <main+0x7fffb148>
    18b8:	8d058593          	addi	a1,a1,-1840 # 800008d0 <main+0x7fffb19c>
    18bc:	6c4020ef          	jal	3f80 <ee_printf>
    18c0:	01412783          	lw	a5,20(sp)
    18c4:	894a0513          	addi	a0,s4,-1900 # 80000894 <main+0x7fffb160>
    18c8:	0007a583          	lw	a1,0(a5)
    18cc:	6b4020ef          	jal	3f80 <ee_printf>
    18d0:	00100793          	li	a5,1
    18d4:	06f40463          	beq	s0,a5,193c <matrix_test+0x628>
    18d8:	800019b7          	lui	s3,0x80001
    18dc:	89098c93          	addi	s9,s3,-1904 # 80000890 <main+0x7fffb15c>
    18e0:	01412a83          	lw	s5,20(sp)
    18e4:	01012983          	lw	s3,16(sp)
    18e8:	00000d93          	li	s11,0
    18ec:	894a0a13          	addi	s4,s4,-1900
    18f0:	000a8c13          	mv	s8,s5
    18f4:	000c8513          	mv	a0,s9
    18f8:	688020ef          	jal	3f80 <ee_printf>
    18fc:	004c2583          	lw	a1,4(s8)
    1900:	000a0513          	mv	a0,s4
    1904:	004c0c13          	addi	s8,s8,4
    1908:	678020ef          	jal	3f80 <ee_printf>
    190c:	ff3c14e3          	bne	s8,s3,18f4 <matrix_test+0x5e0>
    1910:	800007b7          	lui	a5,0x80000
    1914:	69c78513          	addi	a0,a5,1692 # 8000069c <main+0x7fffaf68>
    1918:	001d8d93          	addi	s11,s11,1
    191c:	664020ef          	jal	3f80 <ee_printf>
    1920:	028df463          	bgeu	s11,s0,1948 <matrix_test+0x634>
    1924:	017a8ab3          	add	s5,s5,s7
    1928:	000aa583          	lw	a1,0(s5)
    192c:	000a0513          	mv	a0,s4
    1930:	017989b3          	add	s3,s3,s7
    1934:	64c020ef          	jal	3f80 <ee_printf>
    1938:	fb9ff06f          	j	18f0 <matrix_test+0x5dc>
    193c:	800007b7          	lui	a5,0x80000
    1940:	69c78513          	addi	a0,a5,1692 # 8000069c <main+0x7fffaf68>
    1944:	63c020ef          	jal	3f80 <ee_printf>
    1948:	01412783          	lw	a5,20(sp)
    194c:	00012e23          	sw	zero,28(sp)
    1950:	02f12023          	sw	a5,32(sp)
    1954:	02812783          	lw	a5,40(sp)
    1958:	00f12623          	sw	a5,12(sp)
    195c:	02412a83          	lw	s5,36(sp)
    1960:	02012a03          	lw	s4,32(sp)
    1964:	00000993          	li	s3,0
    1968:	00c12c03          	lw	s8,12(sp)
    196c:	000a8d93          	mv	s11,s5
    1970:	00000d13          	li	s10,0
    1974:	00000c93          	li	s9,0
    1978:	000d9583          	lh	a1,0(s11)
    197c:	000c1503          	lh	a0,0(s8)
    1980:	001c8c93          	addi	s9,s9,1
    1984:	002c0c13          	addi	s8,s8,2
    1988:	4d5030ef          	jal	565c <__mulsi3>
    198c:	40255813          	srai	a6,a0,0x2
    1990:	40555593          	srai	a1,a0,0x5
    1994:	07f5f593          	andi	a1,a1,127
    1998:	00f87513          	andi	a0,a6,15
    199c:	4c1030ef          	jal	565c <__mulsi3>
    19a0:	009d8db3          	add	s11,s11,s1
    19a4:	00ad0d33          	add	s10,s10,a0
    19a8:	fc8ce8e3          	bltu	s9,s0,1978 <matrix_test+0x664>
    19ac:	01aa2023          	sw	s10,0(s4)
    19b0:	00198993          	addi	s3,s3,1
    19b4:	004a0a13          	addi	s4,s4,4
    19b8:	002a8a93          	addi	s5,s5,2
    19bc:	fa89e6e3          	bltu	s3,s0,1968 <matrix_test+0x654>
    19c0:	01c12783          	lw	a5,28(sp)
    19c4:	00178793          	addi	a5,a5,1
    19c8:	00f12e23          	sw	a5,28(sp)
    19cc:	00c12783          	lw	a5,12(sp)
    19d0:	009787b3          	add	a5,a5,s1
    19d4:	00f12623          	sw	a5,12(sp)
    19d8:	02012783          	lw	a5,32(sp)
    19dc:	017787b3          	add	a5,a5,s7
    19e0:	02f12023          	sw	a5,32(sp)
    19e4:	01c12783          	lw	a5,28(sp)
    19e8:	f687eae3          	bltu	a5,s0,195c <matrix_test+0x648>
    19ec:	00000313          	li	t1,0
    19f0:	00000793          	li	a5,0
    19f4:	00000693          	li	a3,0
    19f8:	00000513          	li	a0,0
    19fc:	00000893          	li	a7,0
    1a00:	00078713          	mv	a4,a5
    1a04:	01412783          	lw	a5,20(sp)
    1a08:	00231613          	slli	a2,t1,0x2
    1a0c:	00000593          	li	a1,0
    1a10:	00c78633          	add	a2,a5,a2
    1a14:	00062783          	lw	a5,0(a2)
    1a18:	00a50813          	addi	a6,a0,10
    1a1c:	00158593          	addi	a1,a1,1
    1a20:	00f72733          	slt	a4,a4,a5
    1a24:	00f686b3          	add	a3,a3,a5
    1a28:	00e50533          	add	a0,a0,a4
    1a2c:	02d94a63          	blt	s2,a3,1a60 <matrix_test+0x74c>
    1a30:	01051513          	slli	a0,a0,0x10
    1a34:	41055513          	srai	a0,a0,0x10
    1a38:	0485f463          	bgeu	a1,s0,1a80 <matrix_test+0x76c>
    1a3c:	00460613          	addi	a2,a2,4
    1a40:	00078713          	mv	a4,a5
    1a44:	00062783          	lw	a5,0(a2)
    1a48:	00a50813          	addi	a6,a0,10
    1a4c:	00158593          	addi	a1,a1,1
    1a50:	00f72733          	slt	a4,a4,a5
    1a54:	00f686b3          	add	a3,a3,a5
    1a58:	00e50533          	add	a0,a0,a4
    1a5c:	fcd95ae3          	bge	s2,a3,1a30 <matrix_test+0x71c>
    1a60:	01081513          	slli	a0,a6,0x10
    1a64:	41055513          	srai	a0,a0,0x10
    1a68:	0085fa63          	bgeu	a1,s0,1a7c <matrix_test+0x768>
    1a6c:	00460613          	addi	a2,a2,4
    1a70:	00000693          	li	a3,0
    1a74:	00078713          	mv	a4,a5
    1a78:	fcdff06f          	j	1a44 <matrix_test+0x730>
    1a7c:	00000693          	li	a3,0
    1a80:	00188893          	addi	a7,a7,1
    1a84:	00830333          	add	t1,t1,s0
    1a88:	f688ece3          	bltu	a7,s0,1a00 <matrix_test+0x6ec>
    1a8c:	02c12583          	lw	a1,44(sp)
    1a90:	80001937          	lui	s2,0x80001
    1a94:	351010ef          	jal	35e4 <crc16>
    1a98:	800017b7          	lui	a5,0x80001
    1a9c:	800015b7          	lui	a1,0x80001
    1aa0:	00040693          	mv	a3,s0
    1aa4:	00040613          	mv	a2,s0
    1aa8:	8e458593          	addi	a1,a1,-1820 # 800008e4 <main+0x7fffb1b0>
    1aac:	00050493          	mv	s1,a0
    1ab0:	87c78513          	addi	a0,a5,-1924 # 8000087c <main+0x7fffb148>
    1ab4:	4cc020ef          	jal	3f80 <ee_printf>
    1ab8:	01412783          	lw	a5,20(sp)
    1abc:	89490513          	addi	a0,s2,-1900 # 80000894 <main+0x7fffb160>
    1ac0:	0007a583          	lw	a1,0(a5)
    1ac4:	4bc020ef          	jal	3f80 <ee_printf>
    1ac8:	00100793          	li	a5,1
    1acc:	06f40c63          	beq	s0,a5,1b44 <matrix_test+0x830>
    1ad0:	800019b7          	lui	s3,0x80001
    1ad4:	800007b7          	lui	a5,0x80000
    1ad8:	89490a13          	addi	s4,s2,-1900
    1adc:	69c78a93          	addi	s5,a5,1692 # 8000069c <main+0x7fffaf68>
    1ae0:	89098993          	addi	s3,s3,-1904 # 80000890 <main+0x7fffb15c>
    1ae4:	00000c93          	li	s9,0
    1ae8:	01812903          	lw	s2,24(sp)
    1aec:	00098513          	mv	a0,s3
    1af0:	490020ef          	jal	3f80 <ee_printf>
    1af4:	00492583          	lw	a1,4(s2)
    1af8:	000a0513          	mv	a0,s4
    1afc:	00490913          	addi	s2,s2,4
    1b00:	480020ef          	jal	3f80 <ee_printf>
    1b04:	01012783          	lw	a5,16(sp)
    1b08:	ff2792e3          	bne	a5,s2,1aec <matrix_test+0x7d8>
    1b0c:	000a8513          	mv	a0,s5
    1b10:	001c8c93          	addi	s9,s9,1
    1b14:	46c020ef          	jal	3f80 <ee_printf>
    1b18:	028cfc63          	bgeu	s9,s0,1b50 <matrix_test+0x83c>
    1b1c:	01812783          	lw	a5,24(sp)
    1b20:	000a0513          	mv	a0,s4
    1b24:	017787b3          	add	a5,a5,s7
    1b28:	0007a583          	lw	a1,0(a5)
    1b2c:	00f12c23          	sw	a5,24(sp)
    1b30:	01012783          	lw	a5,16(sp)
    1b34:	017787b3          	add	a5,a5,s7
    1b38:	00f12823          	sw	a5,16(sp)
    1b3c:	444020ef          	jal	3f80 <ee_printf>
    1b40:	fa9ff06f          	j	1ae8 <matrix_test+0x7d4>
    1b44:	800007b7          	lui	a5,0x80000
    1b48:	69c78513          	addi	a0,a5,1692 # 8000069c <main+0x7fffaf68>
    1b4c:	434020ef          	jal	3f80 <ee_printf>
    1b50:	00000593          	li	a1,0
    1b54:	00000613          	li	a2,0
    1b58:	02812703          	lw	a4,40(sp)
    1b5c:	00159793          	slli	a5,a1,0x1
    1b60:	00000693          	li	a3,0
    1b64:	00f707b3          	add	a5,a4,a5
    1b68:	0007d703          	lhu	a4,0(a5)
    1b6c:	00168693          	addi	a3,a3,1
    1b70:	00278793          	addi	a5,a5,2
    1b74:	41670733          	sub	a4,a4,s6
    1b78:	fee79f23          	sh	a4,-2(a5)
    1b7c:	fe86e6e3          	bltu	a3,s0,1b68 <matrix_test+0x854>
    1b80:	00160613          	addi	a2,a2,1
    1b84:	008585b3          	add	a1,a1,s0
    1b88:	fc8668e3          	bltu	a2,s0,1b58 <matrix_test+0x844>
    1b8c:	06c12083          	lw	ra,108(sp)
    1b90:	06812403          	lw	s0,104(sp)
    1b94:	01049513          	slli	a0,s1,0x10
    1b98:	06012903          	lw	s2,96(sp)
    1b9c:	05c12983          	lw	s3,92(sp)
    1ba0:	05812a03          	lw	s4,88(sp)
    1ba4:	05412a83          	lw	s5,84(sp)
    1ba8:	05012b03          	lw	s6,80(sp)
    1bac:	04c12b83          	lw	s7,76(sp)
    1bb0:	04812c03          	lw	s8,72(sp)
    1bb4:	04412c83          	lw	s9,68(sp)
    1bb8:	04012d03          	lw	s10,64(sp)
    1bbc:	03c12d83          	lw	s11,60(sp)
    1bc0:	06412483          	lw	s1,100(sp)
    1bc4:	41055513          	srai	a0,a0,0x10
    1bc8:	07010113          	addi	sp,sp,112
    1bcc:	00008067          	ret
    1bd0:	80001437          	lui	s0,0x80001
    1bd4:	800015b7          	lui	a1,0x80001
    1bd8:	00000693          	li	a3,0
    1bdc:	00000613          	li	a2,0
    1be0:	89858593          	addi	a1,a1,-1896 # 80000898 <main+0x7fffb164>
    1be4:	87c40513          	addi	a0,s0,-1924 # 8000087c <main+0x7fffb148>
    1be8:	398020ef          	jal	3f80 <ee_printf>
    1bec:	00000593          	li	a1,0
    1bf0:	00000513          	li	a0,0
    1bf4:	1f1010ef          	jal	35e4 <crc16>
    1bf8:	800015b7          	lui	a1,0x80001
    1bfc:	00050493          	mv	s1,a0
    1c00:	00000693          	li	a3,0
    1c04:	00000613          	li	a2,0
    1c08:	87c40513          	addi	a0,s0,-1924
    1c0c:	8ac58593          	addi	a1,a1,-1876 # 800008ac <main+0x7fffb178>
    1c10:	370020ef          	jal	3f80 <ee_printf>
    1c14:	00048593          	mv	a1,s1
    1c18:	00000513          	li	a0,0
    1c1c:	1c9010ef          	jal	35e4 <crc16>
    1c20:	800015b7          	lui	a1,0x80001
    1c24:	00050493          	mv	s1,a0
    1c28:	00000693          	li	a3,0
    1c2c:	00000613          	li	a2,0
    1c30:	87c40513          	addi	a0,s0,-1924
    1c34:	8c058593          	addi	a1,a1,-1856 # 800008c0 <main+0x7fffb18c>
    1c38:	348020ef          	jal	3f80 <ee_printf>
    1c3c:	00048593          	mv	a1,s1
    1c40:	00000513          	li	a0,0
    1c44:	1a1010ef          	jal	35e4 <crc16>
    1c48:	800015b7          	lui	a1,0x80001
    1c4c:	00050493          	mv	s1,a0
    1c50:	00000693          	li	a3,0
    1c54:	00000613          	li	a2,0
    1c58:	87c40513          	addi	a0,s0,-1924
    1c5c:	8d058593          	addi	a1,a1,-1840 # 800008d0 <main+0x7fffb19c>
    1c60:	320020ef          	jal	3f80 <ee_printf>
    1c64:	00048593          	mv	a1,s1
    1c68:	00000513          	li	a0,0
    1c6c:	179010ef          	jal	35e4 <crc16>
    1c70:	800015b7          	lui	a1,0x80001
    1c74:	00050493          	mv	s1,a0
    1c78:	8e458593          	addi	a1,a1,-1820 # 800008e4 <main+0x7fffb1b0>
    1c7c:	87c40513          	addi	a0,s0,-1924
    1c80:	00000693          	li	a3,0
    1c84:	00000613          	li	a2,0
    1c88:	2f8020ef          	jal	3f80 <ee_printf>
    1c8c:	06c12083          	lw	ra,108(sp)
    1c90:	06812403          	lw	s0,104(sp)
    1c94:	01049513          	slli	a0,s1,0x10
    1c98:	41055513          	srai	a0,a0,0x10
    1c9c:	06412483          	lw	s1,100(sp)
    1ca0:	07010113          	addi	sp,sp,112
    1ca4:	00008067          	ret

00001ca8 <core_bench_matrix>:
    1ca8:	ff010113          	addi	sp,sp,-16
    1cac:	00812423          	sw	s0,8(sp)
    1cb0:	00852683          	lw	a3,8(a0)
    1cb4:	00060413          	mv	s0,a2
    1cb8:	00058713          	mv	a4,a1
    1cbc:	00452603          	lw	a2,4(a0)
    1cc0:	00c52583          	lw	a1,12(a0)
    1cc4:	00052503          	lw	a0,0(a0)
    1cc8:	00112623          	sw	ra,12(sp)
    1ccc:	e48ff0ef          	jal	1314 <matrix_test>
    1cd0:	00040593          	mv	a1,s0
    1cd4:	00812403          	lw	s0,8(sp)
    1cd8:	00c12083          	lw	ra,12(sp)
    1cdc:	01010113          	addi	sp,sp,16
    1ce0:	1050106f          	j	35e4 <crc16>

00001ce4 <core_init_matrix>:
    1ce4:	fb010113          	addi	sp,sp,-80
    1ce8:	05212023          	sw	s2,64(sp)
    1cec:	03a12023          	sw	s10,32(sp)
    1cf0:	04112623          	sw	ra,76(sp)
    1cf4:	04812423          	sw	s0,72(sp)
    1cf8:	04912223          	sw	s1,68(sp)
    1cfc:	03512a23          	sw	s5,52(sp)
    1d00:	00d12023          	sw	a3,0(sp)
    1d04:	00050913          	mv	s2,a0
    1d08:	00060d13          	mv	s10,a2
    1d0c:	00061463          	bnez	a2,1d14 <core_init_matrix+0x30>
    1d10:	00100d13          	li	s10,1
    1d14:	fff58793          	addi	a5,a1,-1
    1d18:	ffc7f793          	andi	a5,a5,-4
    1d1c:	00478413          	addi	s0,a5,4
    1d20:	00000493          	li	s1,0
    1d24:	28090263          	beqz	s2,1fa8 <core_init_matrix+0x2c4>
    1d28:	00048a93          	mv	s5,s1
    1d2c:	00148493          	addi	s1,s1,1
    1d30:	00048593          	mv	a1,s1
    1d34:	00048513          	mv	a0,s1
    1d38:	125030ef          	jal	565c <__mulsi3>
    1d3c:	00351513          	slli	a0,a0,0x3
    1d40:	ff2564e3          	bltu	a0,s2,1d28 <core_init_matrix+0x44>
    1d44:	000a8593          	mv	a1,s5
    1d48:	000a8513          	mv	a0,s5
    1d4c:	111030ef          	jal	565c <__mulsi3>
    1d50:	00151793          	slli	a5,a0,0x1
    1d54:	00f12423          	sw	a5,8(sp)
    1d58:	00f407b3          	add	a5,s0,a5
    1d5c:	00f12223          	sw	a5,4(sp)
    1d60:	280a8463          	beqz	s5,1fe8 <core_init_matrix+0x304>
    1d64:	03312e23          	sw	s3,60(sp)
    1d68:	03412c23          	sw	s4,56(sp)
    1d6c:	03612823          	sw	s6,48(sp)
    1d70:	03712623          	sw	s7,44(sp)
    1d74:	03812423          	sw	s8,40(sp)
    1d78:	03912223          	sw	s9,36(sp)
    1d7c:	01b12e23          	sw	s11,28(sp)
    1d80:	01512623          	sw	s5,12(sp)
    1d84:	001a8493          	addi	s1,s5,1
    1d88:	001a9a13          	slli	s4,s5,0x1
    1d8c:	00078b13          	mv	s6,a5
    1d90:	00078c13          	mv	s8,a5
    1d94:	00000b93          	li	s7,0
    1d98:	00100d93          	li	s11,1
    1d9c:	40f409b3          	sub	s3,s0,a5
    1da0:	000d8c93          	mv	s9,s11
    1da4:	000c0913          	mv	s2,s8
    1da8:	000d0513          	mv	a0,s10
    1dac:	000d8593          	mv	a1,s11
    1db0:	0ad030ef          	jal	565c <__mulsi3>
    1db4:	41f55793          	srai	a5,a0,0x1f
    1db8:	0107d793          	srli	a5,a5,0x10
    1dbc:	00f50633          	add	a2,a0,a5
    1dc0:	01061613          	slli	a2,a2,0x10
    1dc4:	01065613          	srli	a2,a2,0x10
    1dc8:	40f60d33          	sub	s10,a2,a5
    1dcc:	01ad8733          	add	a4,s11,s10
    1dd0:	01b707b3          	add	a5,a4,s11
    1dd4:	012986b3          	add	a3,s3,s2
    1dd8:	00e91023          	sh	a4,0(s2)
    1ddc:	0ff7f793          	zext.b	a5,a5
    1de0:	001d8d93          	addi	s11,s11,1
    1de4:	00f69023          	sh	a5,0(a3)
    1de8:	00290913          	addi	s2,s2,2
    1dec:	fa9d9ee3          	bne	s11,s1,1da8 <core_init_matrix+0xc4>
    1df0:	001b8913          	addi	s2,s7,1
    1df4:	019a8db3          	add	s11,s5,s9
    1df8:	015484b3          	add	s1,s1,s5
    1dfc:	014c0c33          	add	s8,s8,s4
    1e00:	012a8663          	beq	s5,s2,1e0c <core_init_matrix+0x128>
    1e04:	00090b93          	mv	s7,s2
    1e08:	f99ff06f          	j	1da0 <core_init_matrix+0xbc>
    1e0c:	00012783          	lw	a5,0(sp)
    1e10:	00c12703          	lw	a4,12(sp)
    1e14:	800015b7          	lui	a1,0x80001
    1e18:	90458593          	addi	a1,a1,-1788 # 80000904 <main+0x7fffb1d0>
    1e1c:	00e7a023          	sw	a4,0(a5)
    1e20:	00812703          	lw	a4,8(sp)
    1e24:	00412783          	lw	a5,4(sp)
    1e28:	00090693          	mv	a3,s2
    1e2c:	00090613          	mv	a2,s2
    1e30:	00e787b3          	add	a5,a5,a4
    1e34:	fff78793          	addi	a5,a5,-1
    1e38:	00012703          	lw	a4,0(sp)
    1e3c:	ffc7f793          	andi	a5,a5,-4
    1e40:	00478793          	addi	a5,a5,4
    1e44:	00f72623          	sw	a5,12(a4)
    1e48:	00872223          	sw	s0,4(a4)
    1e4c:	00070793          	mv	a5,a4
    1e50:	00412703          	lw	a4,4(sp)
    1e54:	008a0c33          	add	s8,s4,s0
    1e58:	80000d37          	lui	s10,0x80000
    1e5c:	00e7a423          	sw	a4,8(a5)
    1e60:	800017b7          	lui	a5,0x80001
    1e64:	87c78513          	addi	a0,a5,-1924 # 8000087c <main+0x7fffb148>
    1e68:	118020ef          	jal	3f80 <ee_printf>
    1e6c:	80001ab7          	lui	s5,0x80001
    1e70:	800017b7          	lui	a5,0x80001
    1e74:	000c0493          	mv	s1,s8
    1e78:	89478993          	addi	s3,a5,-1900 # 80000894 <main+0x7fffb160>
    1e7c:	69cd0d13          	addi	s10,s10,1692 # 8000069c <main+0x7fffaf68>
    1e80:	890a8a93          	addi	s5,s5,-1904 # 80000890 <main+0x7fffb15c>
    1e84:	00000c93          	li	s9,0
    1e88:	00100d93          	li	s11,1
    1e8c:	00041583          	lh	a1,0(s0)
    1e90:	00098513          	mv	a0,s3
    1e94:	00240413          	addi	s0,s0,2
    1e98:	0e8020ef          	jal	3f80 <ee_printf>
    1e9c:	03b90063          	beq	s2,s11,1ebc <core_init_matrix+0x1d8>
    1ea0:	000a8513          	mv	a0,s5
    1ea4:	0dc020ef          	jal	3f80 <ee_printf>
    1ea8:	00041583          	lh	a1,0(s0)
    1eac:	00098513          	mv	a0,s3
    1eb0:	00240413          	addi	s0,s0,2
    1eb4:	0cc020ef          	jal	3f80 <ee_printf>
    1eb8:	fe8494e3          	bne	s1,s0,1ea0 <core_init_matrix+0x1bc>
    1ebc:	000d0513          	mv	a0,s10
    1ec0:	0c0020ef          	jal	3f80 <ee_printf>
    1ec4:	014484b3          	add	s1,s1,s4
    1ec8:	000c0413          	mv	s0,s8
    1ecc:	019b8863          	beq	s7,s9,1edc <core_init_matrix+0x1f8>
    1ed0:	001c8c93          	addi	s9,s9,1
    1ed4:	018a0c33          	add	s8,s4,s8
    1ed8:	fb5ff06f          	j	1e8c <core_init_matrix+0x1a8>
    1edc:	800017b7          	lui	a5,0x80001
    1ee0:	800015b7          	lui	a1,0x80001
    1ee4:	87c78513          	addi	a0,a5,-1924 # 8000087c <main+0x7fffb148>
    1ee8:	90858593          	addi	a1,a1,-1784 # 80000908 <main+0x7fffb1d4>
    1eec:	00090693          	mv	a3,s2
    1ef0:	00090613          	mv	a2,s2
    1ef4:	08c020ef          	jal	3f80 <ee_printf>
    1ef8:	00412783          	lw	a5,4(sp)
    1efc:	80001ab7          	lui	s5,0x80001
    1f00:	890a8a93          	addi	s5,s5,-1904 # 80000890 <main+0x7fffb15c>
    1f04:	014784b3          	add	s1,a5,s4
    1f08:	800017b7          	lui	a5,0x80001
    1f0c:	ffe48493          	addi	s1,s1,-2
    1f10:	89478993          	addi	s3,a5,-1900 # 80000894 <main+0x7fffb160>
    1f14:	00000c13          	li	s8,0
    1f18:	00100c93          	li	s9,1
    1f1c:	000b1583          	lh	a1,0(s6)
    1f20:	00098513          	mv	a0,s3
    1f24:	000b0413          	mv	s0,s6
    1f28:	058020ef          	jal	3f80 <ee_printf>
    1f2c:	03990063          	beq	s2,s9,1f4c <core_init_matrix+0x268>
    1f30:	000a8513          	mv	a0,s5
    1f34:	04c020ef          	jal	3f80 <ee_printf>
    1f38:	00241583          	lh	a1,2(s0)
    1f3c:	00098513          	mv	a0,s3
    1f40:	00240413          	addi	s0,s0,2
    1f44:	03c020ef          	jal	3f80 <ee_printf>
    1f48:	fe9414e3          	bne	s0,s1,1f30 <core_init_matrix+0x24c>
    1f4c:	000d0513          	mv	a0,s10
    1f50:	030020ef          	jal	3f80 <ee_printf>
    1f54:	014b0b33          	add	s6,s6,s4
    1f58:	014484b3          	add	s1,s1,s4
    1f5c:	018b8663          	beq	s7,s8,1f68 <core_init_matrix+0x284>
    1f60:	001c0c13          	addi	s8,s8,1
    1f64:	fb9ff06f          	j	1f1c <core_init_matrix+0x238>
    1f68:	03c12983          	lw	s3,60(sp)
    1f6c:	03812a03          	lw	s4,56(sp)
    1f70:	03012b03          	lw	s6,48(sp)
    1f74:	02c12b83          	lw	s7,44(sp)
    1f78:	02812c03          	lw	s8,40(sp)
    1f7c:	02412c83          	lw	s9,36(sp)
    1f80:	01c12d83          	lw	s11,28(sp)
    1f84:	04c12083          	lw	ra,76(sp)
    1f88:	04812403          	lw	s0,72(sp)
    1f8c:	04412483          	lw	s1,68(sp)
    1f90:	03412a83          	lw	s5,52(sp)
    1f94:	02012d03          	lw	s10,32(sp)
    1f98:	00090513          	mv	a0,s2
    1f9c:	04012903          	lw	s2,64(sp)
    1fa0:	05010113          	addi	sp,sp,80
    1fa4:	00008067          	ret
    1fa8:	00678793          	addi	a5,a5,6
    1fac:	fff00713          	li	a4,-1
    1fb0:	00f12223          	sw	a5,4(sp)
    1fb4:	00200793          	li	a5,2
    1fb8:	00f12423          	sw	a5,8(sp)
    1fbc:	03312e23          	sw	s3,60(sp)
    1fc0:	00412783          	lw	a5,4(sp)
    1fc4:	03412c23          	sw	s4,56(sp)
    1fc8:	03612823          	sw	s6,48(sp)
    1fcc:	03712623          	sw	s7,44(sp)
    1fd0:	03812423          	sw	s8,40(sp)
    1fd4:	03912223          	sw	s9,36(sp)
    1fd8:	01b12e23          	sw	s11,28(sp)
    1fdc:	00e12623          	sw	a4,12(sp)
    1fe0:	00070a93          	mv	s5,a4
    1fe4:	da1ff06f          	j	1d84 <core_init_matrix+0xa0>
    1fe8:	00078693          	mv	a3,a5
    1fec:	00012783          	lw	a5,0(sp)
    1ff0:	00012703          	lw	a4,0(sp)
    1ff4:	800015b7          	lui	a1,0x80001
    1ff8:	0087a223          	sw	s0,4(a5)
    1ffc:	00412783          	lw	a5,4(sp)
    2000:	80001437          	lui	s0,0x80001
    2004:	00d72423          	sw	a3,8(a4)
    2008:	fff78793          	addi	a5,a5,-1
    200c:	ffc7f793          	andi	a5,a5,-4
    2010:	00478793          	addi	a5,a5,4
    2014:	00f72623          	sw	a5,12(a4)
    2018:	00072023          	sw	zero,0(a4)
    201c:	90458593          	addi	a1,a1,-1788 # 80000904 <main+0x7fffb1d0>
    2020:	00000693          	li	a3,0
    2024:	00000613          	li	a2,0
    2028:	87c40513          	addi	a0,s0,-1924 # 8000087c <main+0x7fffb148>
    202c:	755010ef          	jal	3f80 <ee_printf>
    2030:	800015b7          	lui	a1,0x80001
    2034:	87c40513          	addi	a0,s0,-1924
    2038:	90858593          	addi	a1,a1,-1784 # 80000908 <main+0x7fffb1d4>
    203c:	00000693          	li	a3,0
    2040:	00000613          	li	a2,0
    2044:	73d010ef          	jal	3f80 <ee_printf>
    2048:	00000913          	li	s2,0
    204c:	f39ff06f          	j	1f84 <core_init_matrix+0x2a0>

00002050 <matrix_sum>:
    2050:	00050e93          	mv	t4,a0
    2054:	08050663          	beqz	a0,20e0 <matrix_sum+0x90>
    2058:	00251e13          	slli	t3,a0,0x2
    205c:	01c588b3          	add	a7,a1,t3
    2060:	00000313          	li	t1,0
    2064:	00000513          	li	a0,0
    2068:	00000713          	li	a4,0
    206c:	00000593          	li	a1,0
    2070:	41c887b3          	sub	a5,a7,t3
    2074:	00070693          	mv	a3,a4
    2078:	0007a703          	lw	a4,0(a5)
    207c:	00a50813          	addi	a6,a0,10
    2080:	00478793          	addi	a5,a5,4
    2084:	00e6a6b3          	slt	a3,a3,a4
    2088:	00e585b3          	add	a1,a1,a4
    208c:	00d50533          	add	a0,a0,a3
    2090:	02b64863          	blt	a2,a1,20c0 <matrix_sum+0x70>
    2094:	01051513          	slli	a0,a0,0x10
    2098:	41055513          	srai	a0,a0,0x10
    209c:	02f88a63          	beq	a7,a5,20d0 <matrix_sum+0x80>
    20a0:	00070693          	mv	a3,a4
    20a4:	0007a703          	lw	a4,0(a5)
    20a8:	00a50813          	addi	a6,a0,10
    20ac:	00478793          	addi	a5,a5,4
    20b0:	00e6a6b3          	slt	a3,a3,a4
    20b4:	00e585b3          	add	a1,a1,a4
    20b8:	00d50533          	add	a0,a0,a3
    20bc:	fcb65ce3          	bge	a2,a1,2094 <matrix_sum+0x44>
    20c0:	01081513          	slli	a0,a6,0x10
    20c4:	41055513          	srai	a0,a0,0x10
    20c8:	00000593          	li	a1,0
    20cc:	fcf89ae3          	bne	a7,a5,20a0 <matrix_sum+0x50>
    20d0:	00130313          	addi	t1,t1,1
    20d4:	01c888b3          	add	a7,a7,t3
    20d8:	f86e9ce3          	bne	t4,t1,2070 <matrix_sum+0x20>
    20dc:	00008067          	ret
    20e0:	00000513          	li	a0,0
    20e4:	00008067          	ret

000020e8 <matrix_mul_const>:
    20e8:	0a050a63          	beqz	a0,219c <matrix_mul_const+0xb4>
    20ec:	fd010113          	addi	sp,sp,-48
    20f0:	01812423          	sw	s8,8(sp)
    20f4:	00151c13          	slli	s8,a0,0x1
    20f8:	03212023          	sw	s2,32(sp)
    20fc:	01312e23          	sw	s3,28(sp)
    2100:	01412c23          	sw	s4,24(sp)
    2104:	01512a23          	sw	s5,20(sp)
    2108:	01612823          	sw	s6,16(sp)
    210c:	01712623          	sw	s7,12(sp)
    2110:	02112623          	sw	ra,44(sp)
    2114:	02812423          	sw	s0,40(sp)
    2118:	02912223          	sw	s1,36(sp)
    211c:	00068993          	mv	s3,a3
    2120:	00058b93          	mv	s7,a1
    2124:	00050b13          	mv	s6,a0
    2128:	01860933          	add	s2,a2,s8
    212c:	00000a93          	li	s5,0
    2130:	00000a13          	li	s4,0
    2134:	002a9493          	slli	s1,s5,0x2
    2138:	009b84b3          	add	s1,s7,s1
    213c:	41890433          	sub	s0,s2,s8
    2140:	00041503          	lh	a0,0(s0)
    2144:	00098593          	mv	a1,s3
    2148:	00240413          	addi	s0,s0,2
    214c:	510030ef          	jal	565c <__mulsi3>
    2150:	00a4a023          	sw	a0,0(s1)
    2154:	00448493          	addi	s1,s1,4
    2158:	fe8914e3          	bne	s2,s0,2140 <matrix_mul_const+0x58>
    215c:	001a0a13          	addi	s4,s4,1
    2160:	016a8ab3          	add	s5,s5,s6
    2164:	01890933          	add	s2,s2,s8
    2168:	fd4b16e3          	bne	s6,s4,2134 <matrix_mul_const+0x4c>
    216c:	02c12083          	lw	ra,44(sp)
    2170:	02812403          	lw	s0,40(sp)
    2174:	02412483          	lw	s1,36(sp)
    2178:	02012903          	lw	s2,32(sp)
    217c:	01c12983          	lw	s3,28(sp)
    2180:	01812a03          	lw	s4,24(sp)
    2184:	01412a83          	lw	s5,20(sp)
    2188:	01012b03          	lw	s6,16(sp)
    218c:	00c12b83          	lw	s7,12(sp)
    2190:	00812c03          	lw	s8,8(sp)
    2194:	03010113          	addi	sp,sp,48
    2198:	00008067          	ret
    219c:	00008067          	ret

000021a0 <matrix_add_const>:
    21a0:	02050a63          	beqz	a0,21d4 <matrix_add_const+0x34>
    21a4:	00151813          	slli	a6,a0,0x1
    21a8:	010586b3          	add	a3,a1,a6
    21ac:	00000593          	li	a1,0
    21b0:	410687b3          	sub	a5,a3,a6
    21b4:	0007d703          	lhu	a4,0(a5)
    21b8:	00278793          	addi	a5,a5,2
    21bc:	00e60733          	add	a4,a2,a4
    21c0:	fee79f23          	sh	a4,-2(a5)
    21c4:	fef698e3          	bne	a3,a5,21b4 <matrix_add_const+0x14>
    21c8:	00158593          	addi	a1,a1,1
    21cc:	010686b3          	add	a3,a3,a6
    21d0:	feb510e3          	bne	a0,a1,21b0 <matrix_add_const+0x10>
    21d4:	00008067          	ret

000021d8 <matrix_mul_vect>:
    21d8:	0c050463          	beqz	a0,22a0 <matrix_mul_vect+0xc8>
    21dc:	fd010113          	addi	sp,sp,-48
    21e0:	01312e23          	sw	s3,28(sp)
    21e4:	01812423          	sw	s8,8(sp)
    21e8:	00151993          	slli	s3,a0,0x1
    21ec:	00251c13          	slli	s8,a0,0x2
    21f0:	01412c23          	sw	s4,24(sp)
    21f4:	01512a23          	sw	s5,20(sp)
    21f8:	01612823          	sw	s6,16(sp)
    21fc:	01712623          	sw	s7,12(sp)
    2200:	01912223          	sw	s9,4(sp)
    2204:	02112623          	sw	ra,44(sp)
    2208:	02812423          	sw	s0,40(sp)
    220c:	02912223          	sw	s1,36(sp)
    2210:	03212023          	sw	s2,32(sp)
    2214:	00068b13          	mv	s6,a3
    2218:	00060b93          	mv	s7,a2
    221c:	00050a93          	mv	s5,a0
    2220:	00058a13          	mv	s4,a1
    2224:	01858c33          	add	s8,a1,s8
    2228:	013689b3          	add	s3,a3,s3
    222c:	00000c93          	li	s9,0
    2230:	001c9493          	slli	s1,s9,0x1
    2234:	009b84b3          	add	s1,s7,s1
    2238:	000b0413          	mv	s0,s6
    223c:	00000913          	li	s2,0
    2240:	00041583          	lh	a1,0(s0)
    2244:	00049503          	lh	a0,0(s1)
    2248:	00240413          	addi	s0,s0,2
    224c:	00248493          	addi	s1,s1,2
    2250:	40c030ef          	jal	565c <__mulsi3>
    2254:	00a90933          	add	s2,s2,a0
    2258:	fe8994e3          	bne	s3,s0,2240 <matrix_mul_vect+0x68>
    225c:	012a2023          	sw	s2,0(s4)
    2260:	004a0a13          	addi	s4,s4,4
    2264:	015c8cb3          	add	s9,s9,s5
    2268:	fd4c14e3          	bne	s8,s4,2230 <matrix_mul_vect+0x58>
    226c:	02c12083          	lw	ra,44(sp)
    2270:	02812403          	lw	s0,40(sp)
    2274:	02412483          	lw	s1,36(sp)
    2278:	02012903          	lw	s2,32(sp)
    227c:	01c12983          	lw	s3,28(sp)
    2280:	01812a03          	lw	s4,24(sp)
    2284:	01412a83          	lw	s5,20(sp)
    2288:	01012b03          	lw	s6,16(sp)
    228c:	00c12b83          	lw	s7,12(sp)
    2290:	00812c03          	lw	s8,8(sp)
    2294:	00412c83          	lw	s9,4(sp)
    2298:	03010113          	addi	sp,sp,48
    229c:	00008067          	ret
    22a0:	00008067          	ret

000022a4 <matrix_mul_matrix>:
    22a4:	10050463          	beqz	a0,23ac <matrix_mul_matrix+0x108>
    22a8:	fb010113          	addi	sp,sp,-80
    22ac:	04912223          	sw	s1,68(sp)
    22b0:	00151493          	slli	s1,a0,0x1
    22b4:	05212023          	sw	s2,64(sp)
    22b8:	03612823          	sw	s6,48(sp)
    22bc:	03712623          	sw	s7,44(sp)
    22c0:	03812423          	sw	s8,40(sp)
    22c4:	03912223          	sw	s9,36(sp)
    22c8:	04112623          	sw	ra,76(sp)
    22cc:	04812423          	sw	s0,72(sp)
    22d0:	03312e23          	sw	s3,60(sp)
    22d4:	03412c23          	sw	s4,56(sp)
    22d8:	03512a23          	sw	s5,52(sp)
    22dc:	03a12023          	sw	s10,32(sp)
    22e0:	01b12e23          	sw	s11,28(sp)
    22e4:	00d12623          	sw	a3,12(sp)
    22e8:	00b12423          	sw	a1,8(sp)
    22ec:	00050b93          	mv	s7,a0
    22f0:	00060b13          	mv	s6,a2
    22f4:	00960933          	add	s2,a2,s1
    22f8:	00000c13          	li	s8,0
    22fc:	00000c93          	li	s9,0
    2300:	00812783          	lw	a5,8(sp)
    2304:	00c12a03          	lw	s4,12(sp)
    2308:	002c1993          	slli	s3,s8,0x2
    230c:	013789b3          	add	s3,a5,s3
    2310:	00000a93          	li	s5,0
    2314:	000a0d93          	mv	s11,s4
    2318:	000b0413          	mv	s0,s6
    231c:	00000d13          	li	s10,0
    2320:	000d9583          	lh	a1,0(s11)
    2324:	00041503          	lh	a0,0(s0)
    2328:	00240413          	addi	s0,s0,2
    232c:	009d8db3          	add	s11,s11,s1
    2330:	32c030ef          	jal	565c <__mulsi3>
    2334:	00ad0d33          	add	s10,s10,a0
    2338:	fe8914e3          	bne	s2,s0,2320 <matrix_mul_matrix+0x7c>
    233c:	01a9a023          	sw	s10,0(s3)
    2340:	001a8793          	addi	a5,s5,1
    2344:	00498993          	addi	s3,s3,4
    2348:	002a0a13          	addi	s4,s4,2
    234c:	00fb8663          	beq	s7,a5,2358 <matrix_mul_matrix+0xb4>
    2350:	00078a93          	mv	s5,a5
    2354:	fc1ff06f          	j	2314 <matrix_mul_matrix+0x70>
    2358:	009b0b33          	add	s6,s6,s1
    235c:	017c0c33          	add	s8,s8,s7
    2360:	00990933          	add	s2,s2,s1
    2364:	015c8663          	beq	s9,s5,2370 <matrix_mul_matrix+0xcc>
    2368:	001c8c93          	addi	s9,s9,1
    236c:	f95ff06f          	j	2300 <matrix_mul_matrix+0x5c>
    2370:	04c12083          	lw	ra,76(sp)
    2374:	04812403          	lw	s0,72(sp)
    2378:	04412483          	lw	s1,68(sp)
    237c:	04012903          	lw	s2,64(sp)
    2380:	03c12983          	lw	s3,60(sp)
    2384:	03812a03          	lw	s4,56(sp)
    2388:	03412a83          	lw	s5,52(sp)
    238c:	03012b03          	lw	s6,48(sp)
    2390:	02c12b83          	lw	s7,44(sp)
    2394:	02812c03          	lw	s8,40(sp)
    2398:	02412c83          	lw	s9,36(sp)
    239c:	02012d03          	lw	s10,32(sp)
    23a0:	01c12d83          	lw	s11,28(sp)
    23a4:	05010113          	addi	sp,sp,80
    23a8:	00008067          	ret
    23ac:	00008067          	ret

000023b0 <matrix_mul_matrix_bitextract>:
    23b0:	10050e63          	beqz	a0,24cc <matrix_mul_matrix_bitextract+0x11c>
    23b4:	fb010113          	addi	sp,sp,-80
    23b8:	04812423          	sw	s0,72(sp)
    23bc:	00151413          	slli	s0,a0,0x1
    23c0:	04912223          	sw	s1,68(sp)
    23c4:	03512a23          	sw	s5,52(sp)
    23c8:	03612823          	sw	s6,48(sp)
    23cc:	03712623          	sw	s7,44(sp)
    23d0:	03812423          	sw	s8,40(sp)
    23d4:	04112623          	sw	ra,76(sp)
    23d8:	05212023          	sw	s2,64(sp)
    23dc:	03312e23          	sw	s3,60(sp)
    23e0:	03412c23          	sw	s4,56(sp)
    23e4:	03912223          	sw	s9,36(sp)
    23e8:	03a12023          	sw	s10,32(sp)
    23ec:	01b12e23          	sw	s11,28(sp)
    23f0:	00d12623          	sw	a3,12(sp)
    23f4:	00b12423          	sw	a1,8(sp)
    23f8:	00050b13          	mv	s6,a0
    23fc:	00060a93          	mv	s5,a2
    2400:	008604b3          	add	s1,a2,s0
    2404:	00000b93          	li	s7,0
    2408:	00000c13          	li	s8,0
    240c:	00812783          	lw	a5,8(sp)
    2410:	00c12983          	lw	s3,12(sp)
    2414:	002b9913          	slli	s2,s7,0x2
    2418:	01278933          	add	s2,a5,s2
    241c:	00000a13          	li	s4,0
    2420:	00098d13          	mv	s10,s3
    2424:	000a8d93          	mv	s11,s5
    2428:	00000c93          	li	s9,0
    242c:	000d1583          	lh	a1,0(s10)
    2430:	000d9503          	lh	a0,0(s11)
    2434:	002d8d93          	addi	s11,s11,2
    2438:	008d0d33          	add	s10,s10,s0
    243c:	220030ef          	jal	565c <__mulsi3>
    2440:	40255693          	srai	a3,a0,0x2
    2444:	40555593          	srai	a1,a0,0x5
    2448:	07f5f593          	andi	a1,a1,127
    244c:	00f6f513          	andi	a0,a3,15
    2450:	20c030ef          	jal	565c <__mulsi3>
    2454:	00ac8cb3          	add	s9,s9,a0
    2458:	fdb49ae3          	bne	s1,s11,242c <matrix_mul_matrix_bitextract+0x7c>
    245c:	01992023          	sw	s9,0(s2)
    2460:	001a0793          	addi	a5,s4,1
    2464:	00490913          	addi	s2,s2,4
    2468:	00298993          	addi	s3,s3,2
    246c:	00fb0663          	beq	s6,a5,2478 <matrix_mul_matrix_bitextract+0xc8>
    2470:	00078a13          	mv	s4,a5
    2474:	fadff06f          	j	2420 <matrix_mul_matrix_bitextract+0x70>
    2478:	008a8ab3          	add	s5,s5,s0
    247c:	016b8bb3          	add	s7,s7,s6
    2480:	008484b3          	add	s1,s1,s0
    2484:	014c0663          	beq	s8,s4,2490 <matrix_mul_matrix_bitextract+0xe0>
    2488:	001c0c13          	addi	s8,s8,1
    248c:	f81ff06f          	j	240c <matrix_mul_matrix_bitextract+0x5c>
    2490:	04c12083          	lw	ra,76(sp)
    2494:	04812403          	lw	s0,72(sp)
    2498:	04412483          	lw	s1,68(sp)
    249c:	04012903          	lw	s2,64(sp)
    24a0:	03c12983          	lw	s3,60(sp)
    24a4:	03812a03          	lw	s4,56(sp)
    24a8:	03412a83          	lw	s5,52(sp)
    24ac:	03012b03          	lw	s6,48(sp)
    24b0:	02c12b83          	lw	s7,44(sp)
    24b4:	02812c03          	lw	s8,40(sp)
    24b8:	02412c83          	lw	s9,36(sp)
    24bc:	02012d03          	lw	s10,32(sp)
    24c0:	01c12d83          	lw	s11,28(sp)
    24c4:	05010113          	addi	sp,sp,80
    24c8:	00008067          	ret
    24cc:	00008067          	ret

000024d0 <core_init_state>:
    24d0:	fb010113          	addi	sp,sp,-80
    24d4:	04812423          	sw	s0,72(sp)
    24d8:	03712623          	sw	s7,44(sp)
    24dc:	00058413          	mv	s0,a1
    24e0:	00050b93          	mv	s7,a0
    24e4:	80001537          	lui	a0,0x80001
    24e8:	04912223          	sw	s1,68(sp)
    24ec:	000b8593          	mv	a1,s7
    24f0:	00060493          	mv	s1,a2
    24f4:	90c50513          	addi	a0,a0,-1780 # 8000090c <main+0x7fffb1d8>
    24f8:	00040613          	mv	a2,s0
    24fc:	04112623          	sw	ra,76(sp)
    2500:	05212023          	sw	s2,64(sp)
    2504:	03312e23          	sw	s3,60(sp)
    2508:	03412c23          	sw	s4,56(sp)
    250c:	03a12023          	sw	s10,32(sp)
    2510:	80001937          	lui	s2,0x80001
    2514:	26d010ef          	jal	3f80 <ee_printf>
    2518:	af490913          	addi	s2,s2,-1292 # 80000af4 <intpat>
    251c:	80001537          	lui	a0,0x80001
    2520:	00090593          	mv	a1,s2
    2524:	91c50513          	addi	a0,a0,-1764 # 8000091c <main+0x7fffb1e8>
    2528:	259010ef          	jal	3f80 <ee_printf>
    252c:	80001537          	lui	a0,0x80001
    2530:	01090593          	addi	a1,s2,16
    2534:	92c50513          	addi	a0,a0,-1748 # 8000092c <main+0x7fffb1f8>
    2538:	249010ef          	jal	3f80 <ee_printf>
    253c:	80001537          	lui	a0,0x80001
    2540:	02090593          	addi	a1,s2,32
    2544:	93c50513          	addi	a0,a0,-1732 # 8000093c <main+0x7fffb208>
    2548:	239010ef          	jal	3f80 <ee_printf>
    254c:	80001537          	lui	a0,0x80001
    2550:	03090593          	addi	a1,s2,48
    2554:	94c50513          	addi	a0,a0,-1716 # 8000094c <main+0x7fffb218>
    2558:	fffb8a13          	addi	s4,s7,-1
    255c:	00100993          	li	s3,1
    2560:	221010ef          	jal	3f80 <ee_printf>
    2564:	3149fa63          	bgeu	s3,s4,2878 <core_init_state+0x3a8>
    2568:	01340433          	add	s0,s0,s3
    256c:	01041413          	slli	s0,s0,0x10
    2570:	01045413          	srli	s0,s0,0x10
    2574:	03512a23          	sw	s5,52(sp)
    2578:	03612823          	sw	s6,48(sp)
    257c:	03812423          	sw	s8,40(sp)
    2580:	80001b37          	lui	s6,0x80001
    2584:	01b41693          	slli	a3,s0,0x1b
    2588:	03912223          	sw	s9,36(sp)
    258c:	01b12e23          	sw	s11,28(sp)
    2590:	00700a93          	li	s5,7
    2594:	00747713          	andi	a4,s0,7
    2598:	970b0b13          	addi	s6,s6,-1680 # 80000970 <main+0x7fffb23c>
    259c:	00000d13          	li	s10,0
    25a0:	00400c13          	li	s8,4
    25a4:	01e6d793          	srli	a5,a3,0x1e
    25a8:	0b570063          	beq	a4,s5,2648 <core_init_state+0x178>
    25ac:	26ec6e63          	bltu	s8,a4,2828 <core_init_state+0x358>
    25b0:	ffd70713          	addi	a4,a4,-3
    25b4:	01071713          	slli	a4,a4,0x10
    25b8:	01075713          	srli	a4,a4,0x10
    25bc:	08e9ee63          	bltu	s3,a4,2658 <core_init_state+0x188>
    25c0:	00279793          	slli	a5,a5,0x2
    25c4:	00f907b3          	add	a5,s2,a5
    25c8:	0107ad83          	lw	s11,16(a5)
    25cc:	00140413          	addi	s0,s0,1
    25d0:	01041413          	slli	s0,s0,0x10
    25d4:	009d0c93          	addi	s9,s10,9
    25d8:	01045413          	srli	s0,s0,0x10
    25dc:	094cf263          	bgeu	s9,s4,2660 <core_init_state+0x190>
    25e0:	000d8693          	mv	a3,s11
    25e4:	000d8613          	mv	a2,s11
    25e8:	000d0593          	mv	a1,s10
    25ec:	000b0513          	mv	a0,s6
    25f0:	191010ef          	jal	3f80 <ee_printf>
    25f4:	01a48733          	add	a4,s1,s10
    25f8:	01b767b3          	or	a5,a4,s11
    25fc:	0037f793          	andi	a5,a5,3
    2600:	26079063          	bnez	a5,2860 <core_init_state+0x390>
    2604:	41b707b3          	sub	a5,a4,s11
    2608:	fff78793          	addi	a5,a5,-1
    260c:	0037b793          	sltiu	a5,a5,3
    2610:	24079863          	bnez	a5,2860 <core_init_state+0x390>
    2614:	000da683          	lw	a3,0(s11)
    2618:	00800793          	li	a5,8
    261c:	00d72023          	sw	a3,0(a4)
    2620:	004da683          	lw	a3,4(s11)
    2624:	00d72223          	sw	a3,4(a4)
    2628:	00f707b3          	add	a5,a4,a5
    262c:	02c00713          	li	a4,44
    2630:	00e78023          	sb	a4,0(a5)
    2634:	01b41693          	slli	a3,s0,0x1b
    2638:	00747713          	andi	a4,s0,7
    263c:	000c8d13          	mv	s10,s9
    2640:	01e6d793          	srli	a5,a3,0x1e
    2644:	f75714e3          	bne	a4,s5,25ac <core_init_state+0xdc>
    2648:	00279793          	slli	a5,a5,0x2
    264c:	00f907b3          	add	a5,s2,a5
    2650:	0307ad83          	lw	s11,48(a5)
    2654:	f79ff06f          	j	25cc <core_init_state+0xfc>
    2658:	005d0c93          	addi	s9,s10,5
    265c:	134cea63          	bltu	s9,s4,2790 <core_init_state+0x2c0>
    2660:	1f7d7063          	bgeu	s10,s7,2840 <core_init_state+0x370>
    2664:	001d0993          	addi	s3,s10,1
    2668:	00098513          	mv	a0,s3
    266c:	013bb833          	sltu	a6,s7,s3
    2670:	41ab87b3          	sub	a5,s7,s10
    2674:	00100613          	li	a2,1
    2678:	1d3bf063          	bgeu	s7,s3,2838 <core_init_state+0x368>
    267c:	fff78793          	addi	a5,a5,-1
    2680:	01a48733          	add	a4,s1,s10
    2684:	0067b693          	sltiu	a3,a5,6
    2688:	40e005b3          	neg	a1,a4
    268c:	0035f793          	andi	a5,a1,3
    2690:	06069463          	bnez	a3,26f8 <core_init_state+0x228>
    2694:	06081263          	bnez	a6,26f8 <core_init_state+0x228>
    2698:	1c078063          	beqz	a5,2858 <core_init_state+0x388>
    269c:	00070023          	sb	zero,0(a4)
    26a0:	0025f593          	andi	a1,a1,2
    26a4:	02058263          	beqz	a1,26c8 <core_init_state+0x1f8>
    26a8:	013489b3          	add	s3,s1,s3
    26ac:	00098023          	sb	zero,0(s3)
    26b0:	00300713          	li	a4,3
    26b4:	002d0513          	addi	a0,s10,2
    26b8:	00e79863          	bne	a5,a4,26c8 <core_init_state+0x1f8>
    26bc:	00a48533          	add	a0,s1,a0
    26c0:	00050023          	sb	zero,0(a0)
    26c4:	00ed0533          	add	a0,s10,a4
    26c8:	40f606b3          	sub	a3,a2,a5
    26cc:	00fd07b3          	add	a5,s10,a5
    26d0:	00f487b3          	add	a5,s1,a5
    26d4:	ffc6fd13          	andi	s10,a3,-4
    26d8:	00fd0733          	add	a4,s10,a5
    26dc:	0007a023          	sw	zero,0(a5)
    26e0:	00478793          	addi	a5,a5,4
    26e4:	fef71ce3          	bne	a4,a5,26dc <core_init_state+0x20c>
    26e8:	14dd0c63          	beq	s10,a3,2840 <core_init_state+0x370>
    26ec:	00ad0d33          	add	s10,s10,a0
    26f0:	001d0993          	addi	s3,s10,1
    26f4:	01a48733          	add	a4,s1,s10
    26f8:	03412a83          	lw	s5,52(sp)
    26fc:	03012b03          	lw	s6,48(sp)
    2700:	02812c03          	lw	s8,40(sp)
    2704:	02412c83          	lw	s9,36(sp)
    2708:	01c12d83          	lw	s11,28(sp)
    270c:	00070023          	sb	zero,0(a4)
    2710:	0579f663          	bgeu	s3,s7,275c <core_init_state+0x28c>
    2714:	013489b3          	add	s3,s1,s3
    2718:	00098023          	sb	zero,0(s3)
    271c:	002d0793          	addi	a5,s10,2
    2720:	0377fe63          	bgeu	a5,s7,275c <core_init_state+0x28c>
    2724:	00f487b3          	add	a5,s1,a5
    2728:	00078023          	sb	zero,0(a5)
    272c:	003d0793          	addi	a5,s10,3
    2730:	0377f663          	bgeu	a5,s7,275c <core_init_state+0x28c>
    2734:	00f487b3          	add	a5,s1,a5
    2738:	00078023          	sb	zero,0(a5)
    273c:	004d0793          	addi	a5,s10,4
    2740:	0177fe63          	bgeu	a5,s7,275c <core_init_state+0x28c>
    2744:	00f487b3          	add	a5,s1,a5
    2748:	00078023          	sb	zero,0(a5)
    274c:	005d0d13          	addi	s10,s10,5
    2750:	017d7663          	bgeu	s10,s7,275c <core_init_state+0x28c>
    2754:	01a48d33          	add	s10,s1,s10
    2758:	000d0023          	sb	zero,0(s10)
    275c:	04812403          	lw	s0,72(sp)
    2760:	04c12083          	lw	ra,76(sp)
    2764:	04012903          	lw	s2,64(sp)
    2768:	03c12983          	lw	s3,60(sp)
    276c:	03812a03          	lw	s4,56(sp)
    2770:	02c12b83          	lw	s7,44(sp)
    2774:	02012d03          	lw	s10,32(sp)
    2778:	00048593          	mv	a1,s1
    277c:	04412483          	lw	s1,68(sp)
    2780:	80001537          	lui	a0,0x80001
    2784:	95c50513          	addi	a0,a0,-1700 # 8000095c <main+0x7fffb228>
    2788:	05010113          	addi	sp,sp,80
    278c:	7f40106f          	j	3f80 <ee_printf>
    2790:	00279793          	slli	a5,a5,0x2
    2794:	00f907b3          	add	a5,s2,a5
    2798:	0007ad83          	lw	s11,0(a5)
    279c:	80001537          	lui	a0,0x80001
    27a0:	001d0793          	addi	a5,s10,1
    27a4:	000d8693          	mv	a3,s11
    27a8:	000d8613          	mv	a2,s11
    27ac:	97050513          	addi	a0,a0,-1680 # 80000970 <main+0x7fffb23c>
    27b0:	000d0593          	mv	a1,s10
    27b4:	00f12623          	sw	a5,12(sp)
    27b8:	7c8010ef          	jal	3f80 <ee_printf>
    27bc:	000dc683          	lbu	a3,0(s11)
    27c0:	00140413          	addi	s0,s0,1
    27c4:	01041413          	slli	s0,s0,0x10
    27c8:	01a48733          	add	a4,s1,s10
    27cc:	01045413          	srli	s0,s0,0x10
    27d0:	00400793          	li	a5,4
    27d4:	00d70023          	sb	a3,0(a4)
    27d8:	00c12683          	lw	a3,12(sp)
    27dc:	001dc583          	lbu	a1,1(s11)
    27e0:	00d48633          	add	a2,s1,a3
    27e4:	00b60023          	sb	a1,0(a2)
    27e8:	002dc603          	lbu	a2,2(s11)
    27ec:	00400693          	li	a3,4
    27f0:	00c70123          	sb	a2,2(a4)
    27f4:	003dc603          	lbu	a2,3(s11)
    27f8:	00c701a3          	sb	a2,3(a4)
    27fc:	e2d786e3          	beq	a5,a3,2628 <core_init_state+0x158>
    2800:	004dc683          	lbu	a3,4(s11)
    2804:	00800793          	li	a5,8
    2808:	00d70223          	sb	a3,4(a4)
    280c:	005dc683          	lbu	a3,5(s11)
    2810:	00d702a3          	sb	a3,5(a4)
    2814:	006dc683          	lbu	a3,6(s11)
    2818:	00d70323          	sb	a3,6(a4)
    281c:	007dc683          	lbu	a3,7(s11)
    2820:	00d703a3          	sb	a3,7(a4)
    2824:	e05ff06f          	j	2628 <core_init_state+0x158>
    2828:	00279793          	slli	a5,a5,0x2
    282c:	00f907b3          	add	a5,s2,a5
    2830:	0207ad83          	lw	s11,32(a5)
    2834:	d99ff06f          	j	25cc <core_init_state+0xfc>
    2838:	00078613          	mv	a2,a5
    283c:	e41ff06f          	j	267c <core_init_state+0x1ac>
    2840:	03412a83          	lw	s5,52(sp)
    2844:	03012b03          	lw	s6,48(sp)
    2848:	02812c03          	lw	s8,40(sp)
    284c:	02412c83          	lw	s9,36(sp)
    2850:	01c12d83          	lw	s11,28(sp)
    2854:	f09ff06f          	j	275c <core_init_state+0x28c>
    2858:	000d0513          	mv	a0,s10
    285c:	e6dff06f          	j	26c8 <core_init_state+0x1f8>
    2860:	000dc683          	lbu	a3,0(s11)
    2864:	001d0793          	addi	a5,s10,1
    2868:	00f12623          	sw	a5,12(sp)
    286c:	00d70023          	sb	a3,0(a4)
    2870:	00800793          	li	a5,8
    2874:	f65ff06f          	j	27d8 <core_init_state+0x308>
    2878:	00000d13          	li	s10,0
    287c:	00048713          	mv	a4,s1
    2880:	e8dff06f          	j	270c <core_init_state+0x23c>

00002884 <core_state_transition>:
    2884:	00052683          	lw	a3,0(a0)
    2888:	0006c783          	lbu	a5,0(a3)
    288c:	04078263          	beqz	a5,28d0 <core_state_transition+0x4c>
    2890:	02c00713          	li	a4,44
    2894:	20e78263          	beq	a5,a4,2a98 <core_state_transition+0x214>
    2898:	02e00813          	li	a6,46
    289c:	1d078c63          	beq	a5,a6,2a74 <core_state_transition+0x1f0>
    28a0:	02f86e63          	bltu	a6,a5,28dc <core_state_transition+0x58>
    28a4:	fd578793          	addi	a5,a5,-43
    28a8:	0fd7f793          	andi	a5,a5,253
    28ac:	1e078c63          	beqz	a5,2aa4 <core_state_transition+0x220>
    28b0:	0045a703          	lw	a4,4(a1)
    28b4:	0005a783          	lw	a5,0(a1)
    28b8:	00168693          	addi	a3,a3,1
    28bc:	00170713          	addi	a4,a4,1
    28c0:	00178793          	addi	a5,a5,1
    28c4:	00f5a023          	sw	a5,0(a1)
    28c8:	00e5a223          	sw	a4,4(a1)
    28cc:	00100793          	li	a5,1
    28d0:	00d52023          	sw	a3,0(a0)
    28d4:	00078513          	mv	a0,a5
    28d8:	00008067          	ret
    28dc:	fd078793          	addi	a5,a5,-48
    28e0:	0ff7f793          	zext.b	a5,a5
    28e4:	00900613          	li	a2,9
    28e8:	fcf664e3          	bltu	a2,a5,28b0 <core_state_transition+0x2c>
    28ec:	0005a603          	lw	a2,0(a1)
    28f0:	00168793          	addi	a5,a3,1
    28f4:	00160613          	addi	a2,a2,1
    28f8:	00c5a023          	sw	a2,0(a1)
    28fc:	0016c683          	lbu	a3,1(a3)
    2900:	1e068a63          	beqz	a3,2af4 <core_state_transition+0x270>
    2904:	20e68663          	beq	a3,a4,2b10 <core_state_transition+0x28c>
    2908:	02e00713          	li	a4,46
    290c:	04e68663          	beq	a3,a4,2958 <core_state_transition+0xd4>
    2910:	fd068693          	addi	a3,a3,-48
    2914:	0ff6f693          	zext.b	a3,a3
    2918:	00900713          	li	a4,9
    291c:	02d77463          	bgeu	a4,a3,2944 <core_state_transition+0xc0>
    2920:	0105a703          	lw	a4,16(a1)
    2924:	00178693          	addi	a3,a5,1
    2928:	00100793          	li	a5,1
    292c:	00f70733          	add	a4,a4,a5
    2930:	00e5a823          	sw	a4,16(a1)
    2934:	00d52023          	sw	a3,0(a0)
    2938:	00078513          	mv	a0,a5
    293c:	00008067          	ret
    2940:	00c5a423          	sw	a2,8(a1)
    2944:	0017c683          	lbu	a3,1(a5)
    2948:	00178793          	addi	a5,a5,1
    294c:	1a068463          	beqz	a3,2af4 <core_state_transition+0x270>
    2950:	02c00713          	li	a4,44
    2954:	fb1ff06f          	j	2904 <core_state_transition+0x80>
    2958:	0105a703          	lw	a4,16(a1)
    295c:	00170713          	addi	a4,a4,1
    2960:	00e5a823          	sw	a4,16(a1)
    2964:	0017c683          	lbu	a3,1(a5)
    2968:	00178793          	addi	a5,a5,1
    296c:	12068063          	beqz	a3,2a8c <core_state_transition+0x208>
    2970:	02c00713          	li	a4,44
    2974:	18e68663          	beq	a3,a4,2b00 <core_state_transition+0x27c>
    2978:	0df6f713          	andi	a4,a3,223
    297c:	04500613          	li	a2,69
    2980:	0cc71663          	bne	a4,a2,2a4c <core_state_transition+0x1c8>
    2984:	0145a703          	lw	a4,20(a1)
    2988:	00178693          	addi	a3,a5,1
    298c:	00170713          	addi	a4,a4,1
    2990:	00e5aa23          	sw	a4,20(a1)
    2994:	0017c703          	lbu	a4,1(a5)
    2998:	18070863          	beqz	a4,2b28 <core_state_transition+0x2a4>
    299c:	02c00613          	li	a2,44
    29a0:	18c70863          	beq	a4,a2,2b30 <core_state_transition+0x2ac>
    29a4:	00c5a683          	lw	a3,12(a1)
    29a8:	fd570713          	addi	a4,a4,-43
    29ac:	0fd77713          	andi	a4,a4,253
    29b0:	00168693          	addi	a3,a3,1
    29b4:	00d5a623          	sw	a3,12(a1)
    29b8:	08071463          	bnez	a4,2a40 <core_state_transition+0x1bc>
    29bc:	0027c703          	lbu	a4,2(a5)
    29c0:	00278693          	addi	a3,a5,2
    29c4:	14070e63          	beqz	a4,2b20 <core_state_transition+0x29c>
    29c8:	18c70463          	beq	a4,a2,2b50 <core_state_transition+0x2cc>
    29cc:	0185a603          	lw	a2,24(a1)
    29d0:	fd070713          	addi	a4,a4,-48
    29d4:	0ff77713          	zext.b	a4,a4
    29d8:	00160613          	addi	a2,a2,1
    29dc:	00900813          	li	a6,9
    29e0:	00c5ac23          	sw	a2,24(a1)
    29e4:	00e87c63          	bgeu	a6,a4,29fc <core_state_transition+0x178>
    29e8:	00378693          	addi	a3,a5,3
    29ec:	00100793          	li	a5,1
    29f0:	00d52023          	sw	a3,0(a0)
    29f4:	00078513          	mv	a0,a5
    29f8:	00008067          	ret
    29fc:	00068613          	mv	a2,a3
    2a00:	0016c703          	lbu	a4,1(a3)
    2a04:	00168693          	addi	a3,a3,1
    2a08:	02c00893          	li	a7,44
    2a0c:	fd070793          	addi	a5,a4,-48
    2a10:	0ff7f793          	zext.b	a5,a5
    2a14:	12070463          	beqz	a4,2b3c <core_state_transition+0x2b8>
    2a18:	13170663          	beq	a4,a7,2b44 <core_state_transition+0x2c0>
    2a1c:	fef870e3          	bgeu	a6,a5,29fc <core_state_transition+0x178>
    2a20:	0045a703          	lw	a4,4(a1)
    2a24:	00100793          	li	a5,1
    2a28:	00260693          	addi	a3,a2,2
    2a2c:	00f70733          	add	a4,a4,a5
    2a30:	00e5a223          	sw	a4,4(a1)
    2a34:	00d52023          	sw	a3,0(a0)
    2a38:	00078513          	mv	a0,a5
    2a3c:	00008067          	ret
    2a40:	00278693          	addi	a3,a5,2
    2a44:	00100793          	li	a5,1
    2a48:	e89ff06f          	j	28d0 <core_state_transition+0x4c>
    2a4c:	fd068693          	addi	a3,a3,-48
    2a50:	0ff6f693          	zext.b	a3,a3
    2a54:	00900713          	li	a4,9
    2a58:	f0d776e3          	bgeu	a4,a3,2964 <core_state_transition+0xe0>
    2a5c:	0145a703          	lw	a4,20(a1)
    2a60:	00178693          	addi	a3,a5,1
    2a64:	00100793          	li	a5,1
    2a68:	00f70733          	add	a4,a4,a5
    2a6c:	00e5aa23          	sw	a4,20(a1)
    2a70:	e61ff06f          	j	28d0 <core_state_transition+0x4c>
    2a74:	0005a603          	lw	a2,0(a1)
    2a78:	00168793          	addi	a5,a3,1
    2a7c:	00160613          	addi	a2,a2,1
    2a80:	00c5a023          	sw	a2,0(a1)
    2a84:	0016c683          	lbu	a3,1(a3)
    2a88:	ee0696e3          	bnez	a3,2974 <core_state_transition+0xf0>
    2a8c:	00078693          	mv	a3,a5
    2a90:	00500793          	li	a5,5
    2a94:	e3dff06f          	j	28d0 <core_state_transition+0x4c>
    2a98:	00000793          	li	a5,0
    2a9c:	00168693          	addi	a3,a3,1
    2aa0:	e31ff06f          	j	28d0 <core_state_transition+0x4c>
    2aa4:	0005a603          	lw	a2,0(a1)
    2aa8:	00168793          	addi	a5,a3,1
    2aac:	00160613          	addi	a2,a2,1
    2ab0:	00c5a023          	sw	a2,0(a1)
    2ab4:	0016c303          	lbu	t1,1(a3)
    2ab8:	0a030a63          	beqz	t1,2b6c <core_state_transition+0x2e8>
    2abc:	0ae30063          	beq	t1,a4,2b5c <core_state_transition+0x2d8>
    2ac0:	0085a603          	lw	a2,8(a1)
    2ac4:	fd030713          	addi	a4,t1,-48
    2ac8:	0ff77713          	zext.b	a4,a4
    2acc:	00900893          	li	a7,9
    2ad0:	00160613          	addi	a2,a2,1
    2ad4:	e6e8f6e3          	bgeu	a7,a4,2940 <core_state_transition+0xbc>
    2ad8:	01030a63          	beq	t1,a6,2aec <core_state_transition+0x268>
    2adc:	00c5a423          	sw	a2,8(a1)
    2ae0:	00268693          	addi	a3,a3,2
    2ae4:	00100793          	li	a5,1
    2ae8:	de9ff06f          	j	28d0 <core_state_transition+0x4c>
    2aec:	00c5a423          	sw	a2,8(a1)
    2af0:	e75ff06f          	j	2964 <core_state_transition+0xe0>
    2af4:	00078693          	mv	a3,a5
    2af8:	00400793          	li	a5,4
    2afc:	dd5ff06f          	j	28d0 <core_state_transition+0x4c>
    2b00:	00078693          	mv	a3,a5
    2b04:	00168693          	addi	a3,a3,1
    2b08:	00500793          	li	a5,5
    2b0c:	dc5ff06f          	j	28d0 <core_state_transition+0x4c>
    2b10:	00078693          	mv	a3,a5
    2b14:	00168693          	addi	a3,a3,1
    2b18:	00400793          	li	a5,4
    2b1c:	db5ff06f          	j	28d0 <core_state_transition+0x4c>
    2b20:	00600793          	li	a5,6
    2b24:	dadff06f          	j	28d0 <core_state_transition+0x4c>
    2b28:	00300793          	li	a5,3
    2b2c:	da5ff06f          	j	28d0 <core_state_transition+0x4c>
    2b30:	00300793          	li	a5,3
    2b34:	00168693          	addi	a3,a3,1
    2b38:	d99ff06f          	j	28d0 <core_state_transition+0x4c>
    2b3c:	00700793          	li	a5,7
    2b40:	d91ff06f          	j	28d0 <core_state_transition+0x4c>
    2b44:	00700793          	li	a5,7
    2b48:	00168693          	addi	a3,a3,1
    2b4c:	d85ff06f          	j	28d0 <core_state_transition+0x4c>
    2b50:	00600793          	li	a5,6
    2b54:	00168693          	addi	a3,a3,1
    2b58:	d79ff06f          	j	28d0 <core_state_transition+0x4c>
    2b5c:	00078693          	mv	a3,a5
    2b60:	00168693          	addi	a3,a3,1
    2b64:	00200793          	li	a5,2
    2b68:	d69ff06f          	j	28d0 <core_state_transition+0x4c>
    2b6c:	00078693          	mv	a3,a5
    2b70:	00200793          	li	a5,2
    2b74:	d5dff06f          	j	28d0 <core_state_transition+0x4c>

00002b78 <core_bench_state>:
    2b78:	f8010113          	addi	sp,sp,-128
    2b7c:	07212823          	sw	s2,112(sp)
    2b80:	07512223          	sw	s5,100(sp)
    2b84:	07612023          	sw	s6,96(sp)
    2b88:	05912a23          	sw	s9,84(sp)
    2b8c:	00078913          	mv	s2,a5
    2b90:	00060c93          	mv	s9,a2
    2b94:	800017b7          	lui	a5,0x80001
    2b98:	00068a93          	mv	s5,a3
    2b9c:	00070b13          	mv	s6,a4
    2ba0:	06912a23          	sw	s1,116(sp)
    2ba4:	05a12823          	sw	s10,80(sp)
    2ba8:	00058493          	mv	s1,a1
    2bac:	00050d13          	mv	s10,a0
    2bb0:	00090713          	mv	a4,s2
    2bb4:	99878513          	addi	a0,a5,-1640 # 80000998 <main+0x7fffb264>
    2bb8:	000b0693          	mv	a3,s6
    2bbc:	000a8613          	mv	a2,s5
    2bc0:	000c8593          	mv	a1,s9
    2bc4:	06812c23          	sw	s0,120(sp)
    2bc8:	07312623          	sw	s3,108(sp)
    2bcc:	06112e23          	sw	ra,124(sp)
    2bd0:	05812c23          	sw	s8,88(sp)
    2bd4:	00912623          	sw	s1,12(sp)
    2bd8:	3a8010ef          	jal	3f80 <ee_printf>
    2bdc:	0004c783          	lbu	a5,0(s1)
    2be0:	02012823          	sw	zero,48(sp)
    2be4:	00012823          	sw	zero,16(sp)
    2be8:	02012a23          	sw	zero,52(sp)
    2bec:	00012a23          	sw	zero,20(sp)
    2bf0:	02012c23          	sw	zero,56(sp)
    2bf4:	00012c23          	sw	zero,24(sp)
    2bf8:	02012e23          	sw	zero,60(sp)
    2bfc:	00012e23          	sw	zero,28(sp)
    2c00:	04012023          	sw	zero,64(sp)
    2c04:	02012023          	sw	zero,32(sp)
    2c08:	04012223          	sw	zero,68(sp)
    2c0c:	02012223          	sw	zero,36(sp)
    2c10:	04012423          	sw	zero,72(sp)
    2c14:	02012423          	sw	zero,40(sp)
    2c18:	04012623          	sw	zero,76(sp)
    2c1c:	02012623          	sw	zero,44(sp)
    2c20:	03010993          	addi	s3,sp,48
    2c24:	01010413          	addi	s0,sp,16
    2c28:	04078663          	beqz	a5,2c74 <core_bench_state+0xfc>
    2c2c:	800017b7          	lui	a5,0x80001
    2c30:	9b478c13          	addi	s8,a5,-1612 # 800009b4 <main+0x7fffb280>
    2c34:	03010993          	addi	s3,sp,48
    2c38:	01010413          	addi	s0,sp,16
    2c3c:	00098593          	mv	a1,s3
    2c40:	00c10513          	addi	a0,sp,12
    2c44:	c41ff0ef          	jal	2884 <core_state_transition>
    2c48:	00251693          	slli	a3,a0,0x2
    2c4c:	008686b3          	add	a3,a3,s0
    2c50:	0006a783          	lw	a5,0(a3)
    2c54:	00050593          	mv	a1,a0
    2c58:	000c0513          	mv	a0,s8
    2c5c:	00178793          	addi	a5,a5,1
    2c60:	00f6a023          	sw	a5,0(a3)
    2c64:	31c010ef          	jal	3f80 <ee_printf>
    2c68:	00c12783          	lw	a5,12(sp)
    2c6c:	0007c783          	lbu	a5,0(a5)
    2c70:	fc0796e3          	bnez	a5,2c3c <core_bench_state+0xc4>
    2c74:	80000c37          	lui	s8,0x80000
    2c78:	69cc0513          	addi	a0,s8,1692 # 8000069c <main+0x7fffaf68>
    2c7c:	01a48d33          	add	s10,s1,s10
    2c80:	300010ef          	jal	3f80 <ee_printf>
    2c84:	15a4fc63          	bgeu	s1,s10,2ddc <core_bench_state+0x264>
    2c88:	00100713          	li	a4,1
    2c8c:	00048793          	mv	a5,s1
    2c90:	02c00613          	li	a2,44
    2c94:	0eeb1e63          	bne	s6,a4,2d90 <core_bench_state+0x218>
    2c98:	0007c703          	lbu	a4,0(a5)
    2c9c:	019746b3          	xor	a3,a4,s9
    2ca0:	00c70463          	beq	a4,a2,2ca8 <core_bench_state+0x130>
    2ca4:	00d78023          	sb	a3,0(a5)
    2ca8:	00178793          	addi	a5,a5,1
    2cac:	ffa7e6e3          	bltu	a5,s10,2c98 <core_bench_state+0x120>
    2cb0:	0004c783          	lbu	a5,0(s1)
    2cb4:	00912623          	sw	s1,12(sp)
    2cb8:	14078263          	beqz	a5,2dfc <core_bench_state+0x284>
    2cbc:	800017b7          	lui	a5,0x80001
    2cc0:	05712e23          	sw	s7,92(sp)
    2cc4:	9b478b93          	addi	s7,a5,-1612 # 800009b4 <main+0x7fffb280>
    2cc8:	00098593          	mv	a1,s3
    2ccc:	00c10513          	addi	a0,sp,12
    2cd0:	bb5ff0ef          	jal	2884 <core_state_transition>
    2cd4:	00251693          	slli	a3,a0,0x2
    2cd8:	008686b3          	add	a3,a3,s0
    2cdc:	0006a783          	lw	a5,0(a3)
    2ce0:	00050593          	mv	a1,a0
    2ce4:	000b8513          	mv	a0,s7
    2ce8:	00178793          	addi	a5,a5,1
    2cec:	00f6a023          	sw	a5,0(a3)
    2cf0:	290010ef          	jal	3f80 <ee_printf>
    2cf4:	00c12783          	lw	a5,12(sp)
    2cf8:	0007c783          	lbu	a5,0(a5)
    2cfc:	fc0796e3          	bnez	a5,2cc8 <core_bench_state+0x150>
    2d00:	69cc0513          	addi	a0,s8,1692
    2d04:	27c010ef          	jal	3f80 <ee_printf>
    2d08:	0fa4f663          	bgeu	s1,s10,2df4 <core_bench_state+0x27c>
    2d0c:	00100793          	li	a5,1
    2d10:	05c12b83          	lw	s7,92(sp)
    2d14:	0afb1463          	bne	s6,a5,2dbc <core_bench_state+0x244>
    2d18:	02c00693          	li	a3,44
    2d1c:	0004c783          	lbu	a5,0(s1)
    2d20:	0157c733          	xor	a4,a5,s5
    2d24:	00d78463          	beq	a5,a3,2d2c <core_bench_state+0x1b4>
    2d28:	00e48023          	sb	a4,0(s1)
    2d2c:	00148493          	addi	s1,s1,1
    2d30:	ffa4e6e3          	bltu	s1,s10,2d1c <core_bench_state+0x1a4>
    2d34:	00098493          	mv	s1,s3
    2d38:	00042503          	lw	a0,0(s0)
    2d3c:	00090593          	mv	a1,s2
    2d40:	00440413          	addi	s0,s0,4
    2d44:	480000ef          	jal	31c4 <crcu32>
    2d48:	00050593          	mv	a1,a0
    2d4c:	0004a503          	lw	a0,0(s1)
    2d50:	00448493          	addi	s1,s1,4
    2d54:	470000ef          	jal	31c4 <crcu32>
    2d58:	00050913          	mv	s2,a0
    2d5c:	fd341ee3          	bne	s0,s3,2d38 <core_bench_state+0x1c0>
    2d60:	07c12083          	lw	ra,124(sp)
    2d64:	07812403          	lw	s0,120(sp)
    2d68:	07412483          	lw	s1,116(sp)
    2d6c:	07012903          	lw	s2,112(sp)
    2d70:	06c12983          	lw	s3,108(sp)
    2d74:	06412a83          	lw	s5,100(sp)
    2d78:	06012b03          	lw	s6,96(sp)
    2d7c:	05812c03          	lw	s8,88(sp)
    2d80:	05412c83          	lw	s9,84(sp)
    2d84:	05012d03          	lw	s10,80(sp)
    2d88:	08010113          	addi	sp,sp,128
    2d8c:	00008067          	ret
    2d90:	0007c703          	lbu	a4,0(a5)
    2d94:	019746b3          	xor	a3,a4,s9
    2d98:	00c70463          	beq	a4,a2,2da0 <core_bench_state+0x228>
    2d9c:	00d78023          	sb	a3,0(a5)
    2da0:	016787b3          	add	a5,a5,s6
    2da4:	ffa7e6e3          	bltu	a5,s10,2d90 <core_bench_state+0x218>
    2da8:	0004c783          	lbu	a5,0(s1)
    2dac:	00912623          	sw	s1,12(sp)
    2db0:	f00796e3          	bnez	a5,2cbc <core_bench_state+0x144>
    2db4:	69cc0513          	addi	a0,s8,1692
    2db8:	1c8010ef          	jal	3f80 <ee_printf>
    2dbc:	02c00693          	li	a3,44
    2dc0:	0004c783          	lbu	a5,0(s1)
    2dc4:	0157c733          	xor	a4,a5,s5
    2dc8:	00d78463          	beq	a5,a3,2dd0 <core_bench_state+0x258>
    2dcc:	00e48023          	sb	a4,0(s1)
    2dd0:	016484b3          	add	s1,s1,s6
    2dd4:	ffa4e6e3          	bltu	s1,s10,2dc0 <core_bench_state+0x248>
    2dd8:	f5dff06f          	j	2d34 <core_bench_state+0x1bc>
    2ddc:	0004c783          	lbu	a5,0(s1)
    2de0:	00912623          	sw	s1,12(sp)
    2de4:	ec079ce3          	bnez	a5,2cbc <core_bench_state+0x144>
    2de8:	69cc0513          	addi	a0,s8,1692
    2dec:	194010ef          	jal	3f80 <ee_printf>
    2df0:	f45ff06f          	j	2d34 <core_bench_state+0x1bc>
    2df4:	05c12b83          	lw	s7,92(sp)
    2df8:	f3dff06f          	j	2d34 <core_bench_state+0x1bc>
    2dfc:	69cc0513          	addi	a0,s8,1692
    2e00:	180010ef          	jal	3f80 <ee_printf>
    2e04:	f15ff06f          	j	2d18 <core_bench_state+0x1a0>

00002e08 <get_seed_32>:
    2e08:	00500793          	li	a5,5
    2e0c:	04a7ec63          	bltu	a5,a0,2e64 <get_seed_32+0x5c>
    2e10:	800007b7          	lui	a5,0x80000
    2e14:	00078793          	mv	a5,a5
    2e18:	00251513          	slli	a0,a0,0x2
    2e1c:	00f50533          	add	a0,a0,a5
    2e20:	00052783          	lw	a5,0(a0)
    2e24:	00078067          	jr	a5 # 80000000 <main+0x7fffa8cc>
    2e28:	800017b7          	lui	a5,0x80001
    2e2c:	b387a503          	lw	a0,-1224(a5) # 80000b38 <seed5_volatile>
    2e30:	00008067          	ret
    2e34:	800017b7          	lui	a5,0x80001
    2e38:	b487a503          	lw	a0,-1208(a5) # 80000b48 <seed1_volatile>
    2e3c:	00008067          	ret
    2e40:	800017b7          	lui	a5,0x80001
    2e44:	b447a503          	lw	a0,-1212(a5) # 80000b44 <seed2_volatile>
    2e48:	00008067          	ret
    2e4c:	800017b7          	lui	a5,0x80001
    2e50:	b407a503          	lw	a0,-1216(a5) # 80000b40 <seed3_volatile>
    2e54:	00008067          	ret
    2e58:	800017b7          	lui	a5,0x80001
    2e5c:	b3c7a503          	lw	a0,-1220(a5) # 80000b3c <seed4_volatile>
    2e60:	00008067          	ret
    2e64:	00000513          	li	a0,0
    2e68:	00008067          	ret

00002e6c <crcu8>:
    2e6c:	0ff5f713          	zext.b	a4,a1
    2e70:	00871713          	slli	a4,a4,0x8
    2e74:	0085d593          	srli	a1,a1,0x8
    2e78:	000017b7          	lui	a5,0x1
    2e7c:	fffff337          	lui	t1,0xfffff
    2e80:	00b76733          	or	a4,a4,a1
    2e84:	f0f78793          	addi	a5,a5,-241 # f0f <core_list_mergesort+0x5b>
    2e88:	0f030313          	addi	t1,t1,240 # fffff0f0 <_stack_top+0x7fffd0f0>
    2e8c:	00f77633          	and	a2,a4,a5
    2e90:	00677733          	and	a4,a4,t1
    2e94:	00475713          	srli	a4,a4,0x4
    2e98:	00461613          	slli	a2,a2,0x4
    2e9c:	00e66633          	or	a2,a2,a4
    2ea0:	ffffd8b7          	lui	a7,0xffffd
    2ea4:	00003737          	lui	a4,0x3
    2ea8:	33370713          	addi	a4,a4,819 # 3333 <crcu32+0x16f>
    2eac:	ccc88893          	addi	a7,a7,-820 # ffffcccc <_stack_top+0x7fffaccc>
    2eb0:	00f57693          	andi	a3,a0,15
    2eb4:	00e675b3          	and	a1,a2,a4
    2eb8:	00455513          	srli	a0,a0,0x4
    2ebc:	01167633          	and	a2,a2,a7
    2ec0:	00469693          	slli	a3,a3,0x4
    2ec4:	00a6e6b3          	or	a3,a3,a0
    2ec8:	00265613          	srli	a2,a2,0x2
    2ecc:	00259593          	slli	a1,a1,0x2
    2ed0:	00c5e5b3          	or	a1,a1,a2
    2ed4:	00005537          	lui	a0,0x5
    2ed8:	0336f613          	andi	a2,a3,51
    2edc:	ffffb837          	lui	a6,0xffffb
    2ee0:	0cc6f693          	andi	a3,a3,204
    2ee4:	aaa80813          	addi	a6,a6,-1366 # ffffaaaa <_stack_top+0x7fff8aaa>
    2ee8:	0026de13          	srli	t3,a3,0x2
    2eec:	55550513          	addi	a0,a0,1365 # 5555 <ee_printf+0x15d5>
    2ef0:	00261613          	slli	a2,a2,0x2
    2ef4:	00a5f6b3          	and	a3,a1,a0
    2ef8:	01c66633          	or	a2,a2,t3
    2efc:	0105f5b3          	and	a1,a1,a6
    2f00:	0015d593          	srli	a1,a1,0x1
    2f04:	00169693          	slli	a3,a3,0x1
    2f08:	05567e93          	andi	t4,a2,85
    2f0c:	0aa67613          	andi	a2,a2,170
    2f10:	00b6ee33          	or	t3,a3,a1
    2f14:	001e9e93          	slli	t4,t4,0x1
    2f18:	00165613          	srli	a2,a2,0x1
    2f1c:	008e5e13          	srli	t3,t3,0x8
    2f20:	00cee633          	or	a2,t4,a2
    2f24:	00ce4633          	xor	a2,t3,a2
    2f28:	80000e37          	lui	t3,0x80000
    2f2c:	018e0e13          	addi	t3,t3,24 # 80000018 <main+0x7fffa8e4>
    2f30:	00161613          	slli	a2,a2,0x1
    2f34:	01c60633          	add	a2,a2,t3
    2f38:	00065603          	lhu	a2,0(a2)
    2f3c:	00b6e6b3          	or	a3,a3,a1
    2f40:	00869693          	slli	a3,a3,0x8
    2f44:	00d646b3          	xor	a3,a2,a3
    2f48:	01069593          	slli	a1,a3,0x10
    2f4c:	0ff67613          	zext.b	a2,a2
    2f50:	0185d693          	srli	a3,a1,0x18
    2f54:	00861613          	slli	a2,a2,0x8
    2f58:	00d66633          	or	a2,a2,a3
    2f5c:	00f676b3          	and	a3,a2,a5
    2f60:	00667633          	and	a2,a2,t1
    2f64:	00465613          	srli	a2,a2,0x4
    2f68:	00469693          	slli	a3,a3,0x4
    2f6c:	00c6e6b3          	or	a3,a3,a2
    2f70:	00e6f7b3          	and	a5,a3,a4
    2f74:	0116f6b3          	and	a3,a3,a7
    2f78:	0026d693          	srli	a3,a3,0x2
    2f7c:	00279793          	slli	a5,a5,0x2
    2f80:	00d7e7b3          	or	a5,a5,a3
    2f84:	00a7f533          	and	a0,a5,a0
    2f88:	0107f7b3          	and	a5,a5,a6
    2f8c:	0017d793          	srli	a5,a5,0x1
    2f90:	00151513          	slli	a0,a0,0x1
    2f94:	00f56533          	or	a0,a0,a5
    2f98:	00008067          	ret

00002f9c <crcu16>:
    2f9c:	0ff5f793          	zext.b	a5,a1
    2fa0:	00879793          	slli	a5,a5,0x8
    2fa4:	0085d593          	srli	a1,a1,0x8
    2fa8:	00001737          	lui	a4,0x1
    2fac:	fffff337          	lui	t1,0xfffff
    2fb0:	0f030313          	addi	t1,t1,240 # fffff0f0 <_stack_top+0x7fffd0f0>
    2fb4:	f0f70713          	addi	a4,a4,-241 # f0f <core_list_mergesort+0x5b>
    2fb8:	00b7e7b3          	or	a5,a5,a1
    2fbc:	00e7f5b3          	and	a1,a5,a4
    2fc0:	0067f7b3          	and	a5,a5,t1
    2fc4:	0047d793          	srli	a5,a5,0x4
    2fc8:	00459593          	slli	a1,a1,0x4
    2fcc:	00f5e5b3          	or	a1,a1,a5
    2fd0:	ffffd8b7          	lui	a7,0xffffd
    2fd4:	000037b7          	lui	a5,0x3
    2fd8:	ccc88893          	addi	a7,a7,-820 # ffffcccc <_stack_top+0x7fffaccc>
    2fdc:	33378793          	addi	a5,a5,819 # 3333 <crcu32+0x16f>
    2fe0:	00f57693          	andi	a3,a0,15
    2fe4:	0f057813          	andi	a6,a0,240
    2fe8:	00f5f633          	and	a2,a1,a5
    2fec:	00485813          	srli	a6,a6,0x4
    2ff0:	0115f5b3          	and	a1,a1,a7
    2ff4:	00469693          	slli	a3,a3,0x4
    2ff8:	0106e6b3          	or	a3,a3,a6
    2ffc:	0025d593          	srli	a1,a1,0x2
    3000:	00261613          	slli	a2,a2,0x2
    3004:	00b66633          	or	a2,a2,a1
    3008:	0336fe13          	andi	t3,a3,51
    300c:	000055b7          	lui	a1,0x5
    3010:	0cc6f693          	andi	a3,a3,204
    3014:	ffffb837          	lui	a6,0xffffb
    3018:	55558593          	addi	a1,a1,1365 # 5555 <ee_printf+0x15d5>
    301c:	aaa80813          	addi	a6,a6,-1366 # ffffaaaa <_stack_top+0x7fff8aaa>
    3020:	0026de93          	srli	t4,a3,0x2
    3024:	002e1e13          	slli	t3,t3,0x2
    3028:	00b676b3          	and	a3,a2,a1
    302c:	01de6e33          	or	t3,t3,t4
    3030:	01067633          	and	a2,a2,a6
    3034:	00169693          	slli	a3,a3,0x1
    3038:	00165613          	srli	a2,a2,0x1
    303c:	055e7f13          	andi	t5,t3,85
    3040:	0aae7e13          	andi	t3,t3,170
    3044:	00c6eeb3          	or	t4,a3,a2
    3048:	001f1f13          	slli	t5,t5,0x1
    304c:	001e5e13          	srli	t3,t3,0x1
    3050:	01cf6e33          	or	t3,t5,t3
    3054:	008ede93          	srli	t4,t4,0x8
    3058:	01ceceb3          	xor	t4,t4,t3
    305c:	80000e37          	lui	t3,0x80000
    3060:	018e0e13          	addi	t3,t3,24 # 80000018 <main+0x7fffa8e4>
    3064:	00c6e633          	or	a2,a3,a2
    3068:	001e9693          	slli	a3,t4,0x1
    306c:	01c686b3          	add	a3,a3,t3
    3070:	0006d683          	lhu	a3,0(a3)
    3074:	00861613          	slli	a2,a2,0x8
    3078:	00855513          	srli	a0,a0,0x8
    307c:	00c6c633          	xor	a2,a3,a2
    3080:	01061e93          	slli	t4,a2,0x10
    3084:	0ff6f693          	zext.b	a3,a3
    3088:	018ed613          	srli	a2,t4,0x18
    308c:	00869693          	slli	a3,a3,0x8
    3090:	00c6e6b3          	or	a3,a3,a2
    3094:	00e6f633          	and	a2,a3,a4
    3098:	0066f6b3          	and	a3,a3,t1
    309c:	0046d693          	srli	a3,a3,0x4
    30a0:	00461613          	slli	a2,a2,0x4
    30a4:	00d66633          	or	a2,a2,a3
    30a8:	00f676b3          	and	a3,a2,a5
    30ac:	01167633          	and	a2,a2,a7
    30b0:	00265613          	srli	a2,a2,0x2
    30b4:	00269693          	slli	a3,a3,0x2
    30b8:	00c6e6b3          	or	a3,a3,a2
    30bc:	00b6f633          	and	a2,a3,a1
    30c0:	0106f6b3          	and	a3,a3,a6
    30c4:	00161613          	slli	a2,a2,0x1
    30c8:	0016d693          	srli	a3,a3,0x1
    30cc:	00d666b3          	or	a3,a2,a3
    30d0:	0ff6f613          	zext.b	a2,a3
    30d4:	00861613          	slli	a2,a2,0x8
    30d8:	0086d693          	srli	a3,a3,0x8
    30dc:	00d66633          	or	a2,a2,a3
    30e0:	00e676b3          	and	a3,a2,a4
    30e4:	00667eb3          	and	t4,a2,t1
    30e8:	004ede93          	srli	t4,t4,0x4
    30ec:	00f57613          	andi	a2,a0,15
    30f0:	00469693          	slli	a3,a3,0x4
    30f4:	01d6e6b3          	or	a3,a3,t4
    30f8:	00455513          	srli	a0,a0,0x4
    30fc:	00461613          	slli	a2,a2,0x4
    3100:	00a66633          	or	a2,a2,a0
    3104:	0116feb3          	and	t4,a3,a7
    3108:	00f6f533          	and	a0,a3,a5
    310c:	002ede93          	srli	t4,t4,0x2
    3110:	03367693          	andi	a3,a2,51
    3114:	00251513          	slli	a0,a0,0x2
    3118:	0cc67613          	andi	a2,a2,204
    311c:	01d56533          	or	a0,a0,t4
    3120:	00265613          	srli	a2,a2,0x2
    3124:	00269693          	slli	a3,a3,0x2
    3128:	00c6e6b3          	or	a3,a3,a2
    312c:	00b57633          	and	a2,a0,a1
    3130:	01057533          	and	a0,a0,a6
    3134:	0556ff13          	andi	t5,a3,85
    3138:	00161613          	slli	a2,a2,0x1
    313c:	00155513          	srli	a0,a0,0x1
    3140:	0aa6f693          	andi	a3,a3,170
    3144:	00a66eb3          	or	t4,a2,a0
    3148:	0016d693          	srli	a3,a3,0x1
    314c:	001f1f13          	slli	t5,t5,0x1
    3150:	00df6f33          	or	t5,t5,a3
    3154:	008ed693          	srli	a3,t4,0x8
    3158:	01e6c6b3          	xor	a3,a3,t5
    315c:	00169693          	slli	a3,a3,0x1
    3160:	01c686b3          	add	a3,a3,t3
    3164:	0006d683          	lhu	a3,0(a3)
    3168:	008e9613          	slli	a2,t4,0x8
    316c:	00c6c633          	xor	a2,a3,a2
    3170:	01061513          	slli	a0,a2,0x10
    3174:	0ff6f693          	zext.b	a3,a3
    3178:	01855613          	srli	a2,a0,0x18
    317c:	00869693          	slli	a3,a3,0x8
    3180:	00c6e6b3          	or	a3,a3,a2
    3184:	00e6f733          	and	a4,a3,a4
    3188:	0066f6b3          	and	a3,a3,t1
    318c:	0046d693          	srli	a3,a3,0x4
    3190:	00471713          	slli	a4,a4,0x4
    3194:	00d76733          	or	a4,a4,a3
    3198:	00f777b3          	and	a5,a4,a5
    319c:	01177733          	and	a4,a4,a7
    31a0:	00275713          	srli	a4,a4,0x2
    31a4:	00279793          	slli	a5,a5,0x2
    31a8:	00e7e7b3          	or	a5,a5,a4
    31ac:	00b7f533          	and	a0,a5,a1
    31b0:	0107f7b3          	and	a5,a5,a6
    31b4:	0017d793          	srli	a5,a5,0x1
    31b8:	00151513          	slli	a0,a0,0x1
    31bc:	00f56533          	or	a0,a0,a5
    31c0:	00008067          	ret

000031c4 <crcu32>:
    31c4:	0ff5f793          	zext.b	a5,a1
    31c8:	00879793          	slli	a5,a5,0x8
    31cc:	0085d593          	srli	a1,a1,0x8
    31d0:	00001737          	lui	a4,0x1
    31d4:	fffff8b7          	lui	a7,0xfffff
    31d8:	0f088893          	addi	a7,a7,240 # fffff0f0 <_stack_top+0x7fffd0f0>
    31dc:	f0f70713          	addi	a4,a4,-241 # f0f <core_list_mergesort+0x5b>
    31e0:	00b7e7b3          	or	a5,a5,a1
    31e4:	00e7f6b3          	and	a3,a5,a4
    31e8:	0117f7b3          	and	a5,a5,a7
    31ec:	0047d793          	srli	a5,a5,0x4
    31f0:	00469693          	slli	a3,a3,0x4
    31f4:	00f6e6b3          	or	a3,a3,a5
    31f8:	ffffd837          	lui	a6,0xffffd
    31fc:	000037b7          	lui	a5,0x3
    3200:	ccc80813          	addi	a6,a6,-820 # ffffcccc <_stack_top+0x7fffaccc>
    3204:	33378793          	addi	a5,a5,819 # 3333 <crcu32+0x16f>
    3208:	00f57613          	andi	a2,a0,15
    320c:	0f057593          	andi	a1,a0,240
    3210:	00f6f333          	and	t1,a3,a5
    3214:	0045d593          	srli	a1,a1,0x4
    3218:	0106f6b3          	and	a3,a3,a6
    321c:	00461613          	slli	a2,a2,0x4
    3220:	00b66633          	or	a2,a2,a1
    3224:	0026d693          	srli	a3,a3,0x2
    3228:	00231313          	slli	t1,t1,0x2
    322c:	00d36333          	or	t1,t1,a3
    3230:	03367e13          	andi	t3,a2,51
    3234:	000056b7          	lui	a3,0x5
    3238:	0cc67613          	andi	a2,a2,204
    323c:	ffffb5b7          	lui	a1,0xffffb
    3240:	55568693          	addi	a3,a3,1365 # 5555 <ee_printf+0x15d5>
    3244:	aaa58593          	addi	a1,a1,-1366 # ffffaaaa <_stack_top+0x7fff8aaa>
    3248:	00265e93          	srli	t4,a2,0x2
    324c:	002e1e13          	slli	t3,t3,0x2
    3250:	00d37633          	and	a2,t1,a3
    3254:	01de6e33          	or	t3,t3,t4
    3258:	00b37333          	and	t1,t1,a1
    325c:	00161613          	slli	a2,a2,0x1
    3260:	00135313          	srli	t1,t1,0x1
    3264:	055e7f13          	andi	t5,t3,85
    3268:	0aae7e13          	andi	t3,t3,170
    326c:	00666eb3          	or	t4,a2,t1
    3270:	001f1f13          	slli	t5,t5,0x1
    3274:	001e5e13          	srli	t3,t3,0x1
    3278:	01cf6e33          	or	t3,t5,t3
    327c:	008ede93          	srli	t4,t4,0x8
    3280:	01ceceb3          	xor	t4,t4,t3
    3284:	00666e33          	or	t3,a2,t1
    3288:	80000337          	lui	t1,0x80000
    328c:	01830313          	addi	t1,t1,24 # 80000018 <main+0x7fffa8e4>
    3290:	001e9613          	slli	a2,t4,0x1
    3294:	00660633          	add	a2,a2,t1
    3298:	00065603          	lhu	a2,0(a2)
    329c:	008e1e13          	slli	t3,t3,0x8
    32a0:	00855f13          	srli	t5,a0,0x8
    32a4:	01c64e33          	xor	t3,a2,t3
    32a8:	010e1e93          	slli	t4,t3,0x10
    32ac:	0ff67613          	zext.b	a2,a2
    32b0:	018ede13          	srli	t3,t4,0x18
    32b4:	00861613          	slli	a2,a2,0x8
    32b8:	01c66633          	or	a2,a2,t3
    32bc:	00e67e33          	and	t3,a2,a4
    32c0:	01167633          	and	a2,a2,a7
    32c4:	00465613          	srli	a2,a2,0x4
    32c8:	004e1e13          	slli	t3,t3,0x4
    32cc:	00ce6e33          	or	t3,t3,a2
    32d0:	00fe7633          	and	a2,t3,a5
    32d4:	010e7e33          	and	t3,t3,a6
    32d8:	002e5e13          	srli	t3,t3,0x2
    32dc:	00261613          	slli	a2,a2,0x2
    32e0:	01c66633          	or	a2,a2,t3
    32e4:	00d67e33          	and	t3,a2,a3
    32e8:	00b67633          	and	a2,a2,a1
    32ec:	00165613          	srli	a2,a2,0x1
    32f0:	001e1e13          	slli	t3,t3,0x1
    32f4:	00ce6e33          	or	t3,t3,a2
    32f8:	0ffe7613          	zext.b	a2,t3
    32fc:	00861613          	slli	a2,a2,0x8
    3300:	008e5e13          	srli	t3,t3,0x8
    3304:	01c66633          	or	a2,a2,t3
    3308:	00e67eb3          	and	t4,a2,a4
    330c:	01167633          	and	a2,a2,a7
    3310:	00465613          	srli	a2,a2,0x4
    3314:	004e9e93          	slli	t4,t4,0x4
    3318:	00ceeeb3          	or	t4,t4,a2
    331c:	00ff7613          	andi	a2,t5,15
    3320:	0f0f7f13          	andi	t5,t5,240
    3324:	00fefe33          	and	t3,t4,a5
    3328:	004f5f13          	srli	t5,t5,0x4
    332c:	010efeb3          	and	t4,t4,a6
    3330:	00461613          	slli	a2,a2,0x4
    3334:	01e66633          	or	a2,a2,t5
    3338:	002ede93          	srli	t4,t4,0x2
    333c:	002e1e13          	slli	t3,t3,0x2
    3340:	01de6e33          	or	t3,t3,t4
    3344:	03367e93          	andi	t4,a2,51
    3348:	0cc67613          	andi	a2,a2,204
    334c:	00265f13          	srli	t5,a2,0x2
    3350:	002e9e93          	slli	t4,t4,0x2
    3354:	00de7633          	and	a2,t3,a3
    3358:	01eeeeb3          	or	t4,t4,t5
    335c:	00be7e33          	and	t3,t3,a1
    3360:	00161613          	slli	a2,a2,0x1
    3364:	001e5e13          	srli	t3,t3,0x1
    3368:	055eff93          	andi	t6,t4,85
    336c:	0aaefe93          	andi	t4,t4,170
    3370:	01c66f33          	or	t5,a2,t3
    3374:	001f9f93          	slli	t6,t6,0x1
    3378:	001ede93          	srli	t4,t4,0x1
    337c:	008f5f13          	srli	t5,t5,0x8
    3380:	01dfeeb3          	or	t4,t6,t4
    3384:	01df4eb3          	xor	t4,t5,t4
    3388:	01c66e33          	or	t3,a2,t3
    338c:	001e9613          	slli	a2,t4,0x1
    3390:	00660633          	add	a2,a2,t1
    3394:	00065603          	lhu	a2,0(a2)
    3398:	008e1e13          	slli	t3,t3,0x8
    339c:	01055e93          	srli	t4,a0,0x10
    33a0:	01c64e33          	xor	t3,a2,t3
    33a4:	010e1f13          	slli	t5,t3,0x10
    33a8:	0ff67613          	zext.b	a2,a2
    33ac:	018f5e13          	srli	t3,t5,0x18
    33b0:	00861613          	slli	a2,a2,0x8
    33b4:	01c66633          	or	a2,a2,t3
    33b8:	00e67e33          	and	t3,a2,a4
    33bc:	01167633          	and	a2,a2,a7
    33c0:	00465613          	srli	a2,a2,0x4
    33c4:	004e1e13          	slli	t3,t3,0x4
    33c8:	00ce6e33          	or	t3,t3,a2
    33cc:	00fe7633          	and	a2,t3,a5
    33d0:	010e7e33          	and	t3,t3,a6
    33d4:	002e5e13          	srli	t3,t3,0x2
    33d8:	00261613          	slli	a2,a2,0x2
    33dc:	01c66633          	or	a2,a2,t3
    33e0:	00d67e33          	and	t3,a2,a3
    33e4:	00b67633          	and	a2,a2,a1
    33e8:	001e1e13          	slli	t3,t3,0x1
    33ec:	00165613          	srli	a2,a2,0x1
    33f0:	00ce6633          	or	a2,t3,a2
    33f4:	0ff67e13          	zext.b	t3,a2
    33f8:	008e1e13          	slli	t3,t3,0x8
    33fc:	00865613          	srli	a2,a2,0x8
    3400:	00ce6e33          	or	t3,t3,a2
    3404:	00ee7633          	and	a2,t3,a4
    3408:	011e7e33          	and	t3,t3,a7
    340c:	004e5e13          	srli	t3,t3,0x4
    3410:	00461613          	slli	a2,a2,0x4
    3414:	01c66633          	or	a2,a2,t3
    3418:	00fefe13          	andi	t3,t4,15
    341c:	0f0efe93          	andi	t4,t4,240
    3420:	004edf13          	srli	t5,t4,0x4
    3424:	004e1e13          	slli	t3,t3,0x4
    3428:	00f67eb3          	and	t4,a2,a5
    342c:	01067633          	and	a2,a2,a6
    3430:	01ee6e33          	or	t3,t3,t5
    3434:	00265613          	srli	a2,a2,0x2
    3438:	002e9e93          	slli	t4,t4,0x2
    343c:	00ceeeb3          	or	t4,t4,a2
    3440:	033e7613          	andi	a2,t3,51
    3444:	0cce7e13          	andi	t3,t3,204
    3448:	002e5f13          	srli	t5,t3,0x2
    344c:	00261613          	slli	a2,a2,0x2
    3450:	00defe33          	and	t3,t4,a3
    3454:	01e66633          	or	a2,a2,t5
    3458:	00befeb3          	and	t4,t4,a1
    345c:	001ede93          	srli	t4,t4,0x1
    3460:	001e1e13          	slli	t3,t3,0x1
    3464:	05567f93          	andi	t6,a2,85
    3468:	0aa67613          	andi	a2,a2,170
    346c:	01de6f33          	or	t5,t3,t4
    3470:	001f9f93          	slli	t6,t6,0x1
    3474:	00165613          	srli	a2,a2,0x1
    3478:	008f5f13          	srli	t5,t5,0x8
    347c:	00cfe633          	or	a2,t6,a2
    3480:	00cf4633          	xor	a2,t5,a2
    3484:	00161613          	slli	a2,a2,0x1
    3488:	00660633          	add	a2,a2,t1
    348c:	00065603          	lhu	a2,0(a2)
    3490:	01de6e33          	or	t3,t3,t4
    3494:	008e1e13          	slli	t3,t3,0x8
    3498:	01c64e33          	xor	t3,a2,t3
    349c:	010e1e93          	slli	t4,t3,0x10
    34a0:	0ff67613          	zext.b	a2,a2
    34a4:	018ede13          	srli	t3,t4,0x18
    34a8:	00861613          	slli	a2,a2,0x8
    34ac:	01c66633          	or	a2,a2,t3
    34b0:	00e67e33          	and	t3,a2,a4
    34b4:	01167633          	and	a2,a2,a7
    34b8:	00465613          	srli	a2,a2,0x4
    34bc:	004e1e13          	slli	t3,t3,0x4
    34c0:	00ce6e33          	or	t3,t3,a2
    34c4:	00fe7633          	and	a2,t3,a5
    34c8:	010e7e33          	and	t3,t3,a6
    34cc:	002e5e13          	srli	t3,t3,0x2
    34d0:	00261613          	slli	a2,a2,0x2
    34d4:	01c66633          	or	a2,a2,t3
    34d8:	00d67e33          	and	t3,a2,a3
    34dc:	00b67633          	and	a2,a2,a1
    34e0:	00165613          	srli	a2,a2,0x1
    34e4:	001e1e13          	slli	t3,t3,0x1
    34e8:	00ce6e33          	or	t3,t3,a2
    34ec:	0ffe7613          	zext.b	a2,t3
    34f0:	00861613          	slli	a2,a2,0x8
    34f4:	008e5e13          	srli	t3,t3,0x8
    34f8:	01c66633          	or	a2,a2,t3
    34fc:	00e67eb3          	and	t4,a2,a4
    3500:	01167e33          	and	t3,a2,a7
    3504:	01855513          	srli	a0,a0,0x18
    3508:	00f57613          	andi	a2,a0,15
    350c:	004e5e13          	srli	t3,t3,0x4
    3510:	004e9e93          	slli	t4,t4,0x4
    3514:	00461613          	slli	a2,a2,0x4
    3518:	01ceeeb3          	or	t4,t4,t3
    351c:	00455513          	srli	a0,a0,0x4
    3520:	00fefe33          	and	t3,t4,a5
    3524:	00a66533          	or	a0,a2,a0
    3528:	010efeb3          	and	t4,t4,a6
    352c:	03357613          	andi	a2,a0,51
    3530:	002ede93          	srli	t4,t4,0x2
    3534:	0cc57513          	andi	a0,a0,204
    3538:	002e1e13          	slli	t3,t3,0x2
    353c:	01de6e33          	or	t3,t3,t4
    3540:	00255513          	srli	a0,a0,0x2
    3544:	00261613          	slli	a2,a2,0x2
    3548:	00a66633          	or	a2,a2,a0
    354c:	00de7533          	and	a0,t3,a3
    3550:	00be7e33          	and	t3,t3,a1
    3554:	05567f13          	andi	t5,a2,85
    3558:	00151513          	slli	a0,a0,0x1
    355c:	001e5e13          	srli	t3,t3,0x1
    3560:	0aa67613          	andi	a2,a2,170
    3564:	01c56eb3          	or	t4,a0,t3
    3568:	00165613          	srli	a2,a2,0x1
    356c:	001f1f13          	slli	t5,t5,0x1
    3570:	00cf6f33          	or	t5,t5,a2
    3574:	008ed613          	srli	a2,t4,0x8
    3578:	01e64633          	xor	a2,a2,t5
    357c:	00161613          	slli	a2,a2,0x1
    3580:	00660633          	add	a2,a2,t1
    3584:	00065603          	lhu	a2,0(a2)
    3588:	008e9513          	slli	a0,t4,0x8
    358c:	00a64533          	xor	a0,a2,a0
    3590:	01051313          	slli	t1,a0,0x10
    3594:	0ff67613          	zext.b	a2,a2
    3598:	01835513          	srli	a0,t1,0x18
    359c:	00861613          	slli	a2,a2,0x8
    35a0:	00a66633          	or	a2,a2,a0
    35a4:	00e67733          	and	a4,a2,a4
    35a8:	01167633          	and	a2,a2,a7
    35ac:	00465613          	srli	a2,a2,0x4
    35b0:	00471713          	slli	a4,a4,0x4
    35b4:	00c76733          	or	a4,a4,a2
    35b8:	00f777b3          	and	a5,a4,a5
    35bc:	01077733          	and	a4,a4,a6
    35c0:	00275713          	srli	a4,a4,0x2
    35c4:	00279793          	slli	a5,a5,0x2
    35c8:	00e7e7b3          	or	a5,a5,a4
    35cc:	00d7f533          	and	a0,a5,a3
    35d0:	00b7f7b3          	and	a5,a5,a1
    35d4:	0017d793          	srli	a5,a5,0x1
    35d8:	00151513          	slli	a0,a0,0x1
    35dc:	00f56533          	or	a0,a0,a5
    35e0:	00008067          	ret

000035e4 <crc16>:
    35e4:	0ff5f793          	zext.b	a5,a1
    35e8:	00879793          	slli	a5,a5,0x8
    35ec:	0085d593          	srli	a1,a1,0x8
    35f0:	00001737          	lui	a4,0x1
    35f4:	fffff337          	lui	t1,0xfffff
    35f8:	0f030313          	addi	t1,t1,240 # fffff0f0 <_stack_top+0x7fffd0f0>
    35fc:	f0f70713          	addi	a4,a4,-241 # f0f <core_list_mergesort+0x5b>
    3600:	00b7e7b3          	or	a5,a5,a1
    3604:	00e7f5b3          	and	a1,a5,a4
    3608:	0067f7b3          	and	a5,a5,t1
    360c:	0047d793          	srli	a5,a5,0x4
    3610:	00459593          	slli	a1,a1,0x4
    3614:	00f5e5b3          	or	a1,a1,a5
    3618:	ffffd8b7          	lui	a7,0xffffd
    361c:	000037b7          	lui	a5,0x3
    3620:	ccc88893          	addi	a7,a7,-820 # ffffcccc <_stack_top+0x7fffaccc>
    3624:	33378793          	addi	a5,a5,819 # 3333 <crcu32+0x16f>
    3628:	00f57693          	andi	a3,a0,15
    362c:	0f057813          	andi	a6,a0,240
    3630:	00f5f633          	and	a2,a1,a5
    3634:	00485813          	srli	a6,a6,0x4
    3638:	0115f5b3          	and	a1,a1,a7
    363c:	00469693          	slli	a3,a3,0x4
    3640:	0106e6b3          	or	a3,a3,a6
    3644:	0025d593          	srli	a1,a1,0x2
    3648:	00261613          	slli	a2,a2,0x2
    364c:	00b66633          	or	a2,a2,a1
    3650:	0336fe13          	andi	t3,a3,51
    3654:	000055b7          	lui	a1,0x5
    3658:	0cc6f693          	andi	a3,a3,204
    365c:	ffffb837          	lui	a6,0xffffb
    3660:	55558593          	addi	a1,a1,1365 # 5555 <ee_printf+0x15d5>
    3664:	aaa80813          	addi	a6,a6,-1366 # ffffaaaa <_stack_top+0x7fff8aaa>
    3668:	0026de93          	srli	t4,a3,0x2
    366c:	002e1e13          	slli	t3,t3,0x2
    3670:	00b676b3          	and	a3,a2,a1
    3674:	01de6e33          	or	t3,t3,t4
    3678:	01067633          	and	a2,a2,a6
    367c:	00169693          	slli	a3,a3,0x1
    3680:	00165613          	srli	a2,a2,0x1
    3684:	055e7f13          	andi	t5,t3,85
    3688:	0aae7e13          	andi	t3,t3,170
    368c:	00c6eeb3          	or	t4,a3,a2
    3690:	001f1f13          	slli	t5,t5,0x1
    3694:	001e5e13          	srli	t3,t3,0x1
    3698:	01cf6e33          	or	t3,t5,t3
    369c:	008ede93          	srli	t4,t4,0x8
    36a0:	01ceceb3          	xor	t4,t4,t3
    36a4:	80000e37          	lui	t3,0x80000
    36a8:	018e0e13          	addi	t3,t3,24 # 80000018 <main+0x7fffa8e4>
    36ac:	00c6e633          	or	a2,a3,a2
    36b0:	001e9693          	slli	a3,t4,0x1
    36b4:	01c686b3          	add	a3,a3,t3
    36b8:	0006d683          	lhu	a3,0(a3)
    36bc:	00861613          	slli	a2,a2,0x8
    36c0:	00855513          	srli	a0,a0,0x8
    36c4:	00c6c633          	xor	a2,a3,a2
    36c8:	01061e93          	slli	t4,a2,0x10
    36cc:	0ff6f693          	zext.b	a3,a3
    36d0:	018ed613          	srli	a2,t4,0x18
    36d4:	00869693          	slli	a3,a3,0x8
    36d8:	00c6e6b3          	or	a3,a3,a2
    36dc:	00e6f633          	and	a2,a3,a4
    36e0:	0066f6b3          	and	a3,a3,t1
    36e4:	0046d693          	srli	a3,a3,0x4
    36e8:	00461613          	slli	a2,a2,0x4
    36ec:	00d66633          	or	a2,a2,a3
    36f0:	00f676b3          	and	a3,a2,a5
    36f4:	01167633          	and	a2,a2,a7
    36f8:	00265613          	srli	a2,a2,0x2
    36fc:	00269693          	slli	a3,a3,0x2
    3700:	00c6e6b3          	or	a3,a3,a2
    3704:	00b6f633          	and	a2,a3,a1
    3708:	0106f6b3          	and	a3,a3,a6
    370c:	00161613          	slli	a2,a2,0x1
    3710:	0016d693          	srli	a3,a3,0x1
    3714:	00d666b3          	or	a3,a2,a3
    3718:	0ff6f613          	zext.b	a2,a3
    371c:	00861613          	slli	a2,a2,0x8
    3720:	0086d693          	srli	a3,a3,0x8
    3724:	00d66633          	or	a2,a2,a3
    3728:	00e676b3          	and	a3,a2,a4
    372c:	00667eb3          	and	t4,a2,t1
    3730:	004ede93          	srli	t4,t4,0x4
    3734:	00f57613          	andi	a2,a0,15
    3738:	00469693          	slli	a3,a3,0x4
    373c:	0f057513          	andi	a0,a0,240
    3740:	01d6e6b3          	or	a3,a3,t4
    3744:	00455513          	srli	a0,a0,0x4
    3748:	00461613          	slli	a2,a2,0x4
    374c:	00a66633          	or	a2,a2,a0
    3750:	0116feb3          	and	t4,a3,a7
    3754:	00f6f533          	and	a0,a3,a5
    3758:	002ede93          	srli	t4,t4,0x2
    375c:	03367693          	andi	a3,a2,51
    3760:	00251513          	slli	a0,a0,0x2
    3764:	0cc67613          	andi	a2,a2,204
    3768:	01d56533          	or	a0,a0,t4
    376c:	00265613          	srli	a2,a2,0x2
    3770:	00269693          	slli	a3,a3,0x2
    3774:	00c6e6b3          	or	a3,a3,a2
    3778:	00b57633          	and	a2,a0,a1
    377c:	01057533          	and	a0,a0,a6
    3780:	0556ff13          	andi	t5,a3,85
    3784:	00161613          	slli	a2,a2,0x1
    3788:	00155513          	srli	a0,a0,0x1
    378c:	0aa6f693          	andi	a3,a3,170
    3790:	00a66eb3          	or	t4,a2,a0
    3794:	0016d693          	srli	a3,a3,0x1
    3798:	001f1f13          	slli	t5,t5,0x1
    379c:	00df6f33          	or	t5,t5,a3
    37a0:	008ed693          	srli	a3,t4,0x8
    37a4:	01e6c6b3          	xor	a3,a3,t5
    37a8:	00169693          	slli	a3,a3,0x1
    37ac:	01c686b3          	add	a3,a3,t3
    37b0:	0006d683          	lhu	a3,0(a3)
    37b4:	008e9613          	slli	a2,t4,0x8
    37b8:	00c6c633          	xor	a2,a3,a2
    37bc:	01061513          	slli	a0,a2,0x10
    37c0:	0ff6f693          	zext.b	a3,a3
    37c4:	01855613          	srli	a2,a0,0x18
    37c8:	00869693          	slli	a3,a3,0x8
    37cc:	00c6e6b3          	or	a3,a3,a2
    37d0:	00e6f733          	and	a4,a3,a4
    37d4:	0066f6b3          	and	a3,a3,t1
    37d8:	0046d693          	srli	a3,a3,0x4
    37dc:	00471713          	slli	a4,a4,0x4
    37e0:	00d76733          	or	a4,a4,a3
    37e4:	00f777b3          	and	a5,a4,a5
    37e8:	01177733          	and	a4,a4,a7
    37ec:	00275713          	srli	a4,a4,0x2
    37f0:	00279793          	slli	a5,a5,0x2
    37f4:	00e7e7b3          	or	a5,a5,a4
    37f8:	00b7f533          	and	a0,a5,a1
    37fc:	0107f7b3          	and	a5,a5,a6
    3800:	0017d793          	srli	a5,a5,0x1
    3804:	00151513          	slli	a0,a0,0x1
    3808:	00f56533          	or	a0,a0,a5
    380c:	00008067          	ret

00003810 <check_data_types>:
    3810:	00000513          	li	a0,0
    3814:	00008067          	ret

00003818 <barebones_clock>:
    3818:	000107b7          	lui	a5,0x10
    381c:	0047a503          	lw	a0,4(a5) # 10004 <main+0xa8d0>
    3820:	00008067          	ret

00003824 <start_time>:
    3824:	000107b7          	lui	a5,0x10
    3828:	0047a703          	lw	a4,4(a5) # 10004 <main+0xa8d0>
    382c:	800017b7          	lui	a5,0x80001
    3830:	b4e7a823          	sw	a4,-1200(a5) # 80000b50 <start_time_val>
    3834:	00008067          	ret

00003838 <stop_time>:
    3838:	000107b7          	lui	a5,0x10
    383c:	0047a703          	lw	a4,4(a5) # 10004 <main+0xa8d0>
    3840:	800017b7          	lui	a5,0x80001
    3844:	b4e7a623          	sw	a4,-1204(a5) # 80000b4c <stop_time_val>
    3848:	00008067          	ret

0000384c <get_time>:
    384c:	80001737          	lui	a4,0x80001
    3850:	800017b7          	lui	a5,0x80001
    3854:	b4c72503          	lw	a0,-1204(a4) # 80000b4c <stop_time_val>
    3858:	b507a783          	lw	a5,-1200(a5) # 80000b50 <start_time_val>
    385c:	40f50533          	sub	a0,a0,a5
    3860:	00008067          	ret

00003864 <time_in_secs>:
    3864:	05f5e5b7          	lui	a1,0x5f5e
    3868:	ff010113          	addi	sp,sp,-16
    386c:	10058593          	addi	a1,a1,256 # 5f5e100 <main+0x5f589cc>
    3870:	00112623          	sw	ra,12(sp)
    3874:	615010ef          	jal	5688 <__hidden___udivsi3>
    3878:	00c12083          	lw	ra,12(sp)
    387c:	01010113          	addi	sp,sp,16
    3880:	00008067          	ret

00003884 <portable_init>:
    3884:	ff010113          	addi	sp,sp,-16
    3888:	800017b7          	lui	a5,0x80001
    388c:	00812423          	sw	s0,8(sp)
    3890:	00050413          	mv	s0,a0
    3894:	a6878513          	addi	a0,a5,-1432 # 80000a68 <main+0x7fffb334>
    3898:	00112623          	sw	ra,12(sp)
    389c:	6e4000ef          	jal	3f80 <ee_printf>
    38a0:	00100793          	li	a5,1
    38a4:	00f40023          	sb	a5,0(s0)
    38a8:	00c12083          	lw	ra,12(sp)
    38ac:	00812403          	lw	s0,8(sp)
    38b0:	01010113          	addi	sp,sp,16
    38b4:	00008067          	ret

000038b8 <portable_fini>:
    38b8:	00050023          	sb	zero,0(a0)
    38bc:	00008067          	ret

000038c0 <number>:
    38c0:	f6010113          	addi	sp,sp,-160
    38c4:	08812c23          	sw	s0,152(sp)
    38c8:	09212823          	sw	s2,144(sp)
    38cc:	09412423          	sw	s4,136(sp)
    38d0:	08112e23          	sw	ra,156(sp)
    38d4:	08912a23          	sw	s1,148(sp)
    38d8:	09512223          	sw	s5,132(sp)
    38dc:	09612023          	sw	s6,128(sp)
    38e0:	07712e23          	sw	s7,124(sp)
    38e4:	07912a23          	sw	s9,116(sp)
    38e8:	07a12823          	sw	s10,112(sp)
    38ec:	07b12623          	sw	s11,108(sp)
    38f0:	0407f813          	andi	a6,a5,64
    38f4:	00e12223          	sw	a4,4(sp)
    38f8:	00050a13          	mv	s4,a0
    38fc:	00068413          	mv	s0,a3
    3900:	00058513          	mv	a0,a1
    3904:	00060913          	mv	s2,a2
    3908:	1a081063          	bnez	a6,3aa8 <number+0x1e8>
    390c:	80001ab7          	lui	s5,0x80001
    3910:	0107fd13          	andi	s10,a5,16
    3914:	a90a8a93          	addi	s5,s5,-1392 # 80000a90 <main+0x7fffb35c>
    3918:	1a0d1063          	bnez	s10,3ab8 <number+0x1f8>
    391c:	0017f713          	andi	a4,a5,1
    3920:	fff70b13          	addi	s6,a4,-1
    3924:	00e12623          	sw	a4,12(sp)
    3928:	ff0b7b13          	andi	s6,s6,-16
    392c:	0027f713          	andi	a4,a5,2
    3930:	030b0b13          	addi	s6,s6,48
    3934:	0207fc93          	andi	s9,a5,32
    3938:	18070e63          	beqz	a4,3ad4 <number+0x214>
    393c:	54054c63          	bltz	a0,3e94 <number+0x5d4>
    3940:	0047f713          	andi	a4,a5,4
    3944:	52071063          	bnez	a4,3e64 <number+0x5a4>
    3948:	0087f793          	andi	a5,a5,8
    394c:	00012423          	sw	zero,8(sp)
    3950:	00078863          	beqz	a5,3960 <number+0xa0>
    3954:	02000793          	li	a5,32
    3958:	fff40413          	addi	s0,s0,-1
    395c:	00f12423          	sw	a5,8(sp)
    3960:	000c8e63          	beqz	s9,397c <number+0xbc>
    3964:	01000793          	li	a5,16
    3968:	56f90c63          	beq	s2,a5,3ee0 <number+0x620>
    396c:	ff890793          	addi	a5,s2,-8
    3970:	0017b793          	seqz	a5,a5
    3974:	40f40433          	sub	s0,s0,a5
    3978:	02000c93          	li	s9,32
    397c:	46051e63          	bnez	a0,3df8 <number+0x538>
    3980:	03000793          	li	a5,48
    3984:	00f10e23          	sb	a5,28(sp)
    3988:	00000b93          	li	s7,0
    398c:	00100d93          	li	s11,1
    3990:	01c10493          	addi	s1,sp,28
    3994:	00412783          	lw	a5,4(sp)
    3998:	000d8593          	mv	a1,s11
    399c:	00fdd463          	bge	s11,a5,39a4 <number+0xe4>
    39a0:	00078593          	mv	a1,a5
    39a4:	00c12783          	lw	a5,12(sp)
    39a8:	40b40433          	sub	s0,s0,a1
    39ac:	12079a63          	bnez	a5,3ae0 <number+0x220>
    39b0:	fff40813          	addi	a6,s0,-1
    39b4:	12805463          	blez	s0,3adc <number+0x21c>
    39b8:	00500713          	li	a4,5
    39bc:	000a0793          	mv	a5,s4
    39c0:	07077e63          	bgeu	a4,a6,3a3c <number+0x17c>
    39c4:	41400633          	neg	a2,s4
    39c8:	00367713          	andi	a4,a2,3
    39cc:	000a0313          	mv	t1,s4
    39d0:	02070e63          	beqz	a4,3a0c <number+0x14c>
    39d4:	02000513          	li	a0,32
    39d8:	00267613          	andi	a2,a2,2
    39dc:	00aa0023          	sb	a0,0(s4)
    39e0:	001a0313          	addi	t1,s4,1
    39e4:	ffe40813          	addi	a6,s0,-2
    39e8:	02060263          	beqz	a2,3a0c <number+0x14c>
    39ec:	00aa00a3          	sb	a0,1(s4)
    39f0:	00300613          	li	a2,3
    39f4:	002a0313          	addi	t1,s4,2
    39f8:	ffd40813          	addi	a6,s0,-3
    39fc:	00c71863          	bne	a4,a2,3a0c <number+0x14c>
    3a00:	00aa0123          	sb	a0,2(s4)
    3a04:	003a0313          	addi	t1,s4,3
    3a08:	ffc40813          	addi	a6,s0,-4
    3a0c:	40e408b3          	sub	a7,s0,a4
    3a10:	20202637          	lui	a2,0x20202
    3a14:	00ea0733          	add	a4,s4,a4
    3a18:	ffc8fa13          	andi	s4,a7,-4
    3a1c:	01470533          	add	a0,a4,s4
    3a20:	02060613          	addi	a2,a2,32 # 20202020 <main+0x201fc8ec>
    3a24:	00c72023          	sw	a2,0(a4)
    3a28:	00470713          	addi	a4,a4,4
    3a2c:	fea71ce3          	bne	a4,a0,3a24 <number+0x164>
    3a30:	05488663          	beq	a7,s4,3a7c <number+0x1bc>
    3a34:	41480833          	sub	a6,a6,s4
    3a38:	01430a33          	add	s4,t1,s4
    3a3c:	02000713          	li	a4,32
    3a40:	00ea0023          	sb	a4,0(s4)
    3a44:	03005c63          	blez	a6,3a7c <number+0x1bc>
    3a48:	00ea00a3          	sb	a4,1(s4)
    3a4c:	00100613          	li	a2,1
    3a50:	02c80663          	beq	a6,a2,3a7c <number+0x1bc>
    3a54:	00ea0123          	sb	a4,2(s4)
    3a58:	00200613          	li	a2,2
    3a5c:	02c80063          	beq	a6,a2,3a7c <number+0x1bc>
    3a60:	00ea01a3          	sb	a4,3(s4)
    3a64:	00300613          	li	a2,3
    3a68:	00c80a63          	beq	a6,a2,3a7c <number+0x1bc>
    3a6c:	00ea0223          	sb	a4,4(s4)
    3a70:	00400613          	li	a2,4
    3a74:	00c80463          	beq	a6,a2,3a7c <number+0x1bc>
    3a78:	00ea02a3          	sb	a4,5(s4)
    3a7c:	00812703          	lw	a4,8(sp)
    3a80:	008787b3          	add	a5,a5,s0
    3a84:	3c071263          	bnez	a4,3e48 <number+0x588>
    3a88:	000c8a63          	beqz	s9,3a9c <number+0x1dc>
    3a8c:	00800713          	li	a4,8
    3a90:	48e90e63          	beq	s2,a4,3f2c <number+0x66c>
    3a94:	01000713          	li	a4,16
    3a98:	3ce90e63          	beq	s2,a4,3e74 <number+0x5b4>
    3a9c:	01a03433          	snez	s0,s10
    3aa0:	ffe40413          	addi	s0,s0,-2
    3aa4:	1680006f          	j	3c0c <number+0x34c>
    3aa8:	80001ab7          	lui	s5,0x80001
    3aac:	0107fd13          	andi	s10,a5,16
    3ab0:	ab8a8a93          	addi	s5,s5,-1352 # 80000ab8 <main+0x7fffb384>
    3ab4:	e60d04e3          	beqz	s10,391c <number+0x5c>
    3ab8:	ffe7f793          	andi	a5,a5,-2
    3abc:	01000713          	li	a4,16
    3ac0:	00e12623          	sw	a4,12(sp)
    3ac4:	0027f713          	andi	a4,a5,2
    3ac8:	02000b13          	li	s6,32
    3acc:	0207fc93          	andi	s9,a5,32
    3ad0:	e60716e3          	bnez	a4,393c <number+0x7c>
    3ad4:	00012423          	sw	zero,8(sp)
    3ad8:	e89ff06f          	j	3960 <number+0xa0>
    3adc:	00080413          	mv	s0,a6
    3ae0:	00812783          	lw	a5,8(sp)
    3ae4:	00078663          	beqz	a5,3af0 <number+0x230>
    3ae8:	00fa0023          	sb	a5,0(s4)
    3aec:	001a0a13          	addi	s4,s4,1
    3af0:	000c8a63          	beqz	s9,3b04 <number+0x244>
    3af4:	00800793          	li	a5,8
    3af8:	40f90663          	beq	s2,a5,3f04 <number+0x644>
    3afc:	01000793          	li	a5,16
    3b00:	36f90e63          	beq	s2,a5,3e7c <number+0x5bc>
    3b04:	000a0793          	mv	a5,s4
    3b08:	100d1263          	bnez	s10,3c0c <number+0x34c>
    3b0c:	fff40813          	addi	a6,s0,-1
    3b10:	44805e63          	blez	s0,3f6c <number+0x6ac>
    3b14:	00500713          	li	a4,5
    3b18:	00078893          	mv	a7,a5
    3b1c:	0b077663          	bgeu	a4,a6,3bc8 <number+0x308>
    3b20:	40f00633          	neg	a2,a5
    3b24:	00367713          	andi	a4,a2,3
    3b28:	00078313          	mv	t1,a5
    3b2c:	02070c63          	beqz	a4,3b64 <number+0x2a4>
    3b30:	01678023          	sb	s6,0(a5)
    3b34:	00267613          	andi	a2,a2,2
    3b38:	00178313          	addi	t1,a5,1
    3b3c:	ffe40813          	addi	a6,s0,-2
    3b40:	02060263          	beqz	a2,3b64 <number+0x2a4>
    3b44:	016780a3          	sb	s6,1(a5)
    3b48:	00300613          	li	a2,3
    3b4c:	00278313          	addi	t1,a5,2
    3b50:	ffd40813          	addi	a6,s0,-3
    3b54:	00c71863          	bne	a4,a2,3b64 <number+0x2a4>
    3b58:	01678123          	sb	s6,2(a5)
    3b5c:	00378313          	addi	t1,a5,3
    3b60:	ffc40813          	addi	a6,s0,-4
    3b64:	ffff0637          	lui	a2,0xffff0
    3b68:	0ff60613          	addi	a2,a2,255 # ffff00ff <_stack_top+0x7ffee0ff>
    3b6c:	008b1513          	slli	a0,s6,0x8
    3b70:	00cb7633          	and	a2,s6,a2
    3b74:	00a66633          	or	a2,a2,a0
    3b78:	ff010537          	lui	a0,0xff010
    3b7c:	fff50513          	addi	a0,a0,-1 # ff00ffff <_stack_top+0x7f00dfff>
    3b80:	00a67633          	and	a2,a2,a0
    3b84:	010b1513          	slli	a0,s6,0x10
    3b88:	00a66633          	or	a2,a2,a0
    3b8c:	00f0f537          	lui	a0,0xf0f
    3b90:	0f050513          	addi	a0,a0,240 # f0f0f0 <main+0xf099bc>
    3b94:	40e40e33          	sub	t3,s0,a4
    3b98:	00a67633          	and	a2,a2,a0
    3b9c:	00e78733          	add	a4,a5,a4
    3ba0:	018b1793          	slli	a5,s6,0x18
    3ba4:	00f66633          	or	a2,a2,a5
    3ba8:	ffce7793          	andi	a5,t3,-4
    3bac:	00e78533          	add	a0,a5,a4
    3bb0:	00c72023          	sw	a2,0(a4)
    3bb4:	00470713          	addi	a4,a4,4
    3bb8:	fee51ce3          	bne	a0,a4,3bb0 <number+0x2f0>
    3bbc:	04fe0463          	beq	t3,a5,3c04 <number+0x344>
    3bc0:	40f80833          	sub	a6,a6,a5
    3bc4:	00f307b3          	add	a5,t1,a5
    3bc8:	01678023          	sb	s6,0(a5)
    3bcc:	03005c63          	blez	a6,3c04 <number+0x344>
    3bd0:	016780a3          	sb	s6,1(a5)
    3bd4:	00100713          	li	a4,1
    3bd8:	02e80663          	beq	a6,a4,3c04 <number+0x344>
    3bdc:	01678123          	sb	s6,2(a5)
    3be0:	00200713          	li	a4,2
    3be4:	02e80063          	beq	a6,a4,3c04 <number+0x344>
    3be8:	016781a3          	sb	s6,3(a5)
    3bec:	00300713          	li	a4,3
    3bf0:	00e80a63          	beq	a6,a4,3c04 <number+0x344>
    3bf4:	01678223          	sb	s6,4(a5)
    3bf8:	00400713          	li	a4,4
    3bfc:	00e80463          	beq	a6,a4,3c04 <number+0x344>
    3c00:	016782a3          	sb	s6,5(a5)
    3c04:	008887b3          	add	a5,a7,s0
    3c08:	fff00413          	li	s0,-1
    3c0c:	00412703          	lw	a4,4(sp)
    3c10:	0cedd663          	bge	s11,a4,3cdc <number+0x41c>
    3c14:	41b58633          	sub	a2,a1,s11
    3c18:	fff60893          	addi	a7,a2,-1
    3c1c:	0068b713          	sltiu	a4,a7,6
    3c20:	fff58513          	addi	a0,a1,-1
    3c24:	00078313          	mv	t1,a5
    3c28:	06071663          	bnez	a4,3c94 <number+0x3d4>
    3c2c:	40f00833          	neg	a6,a5
    3c30:	00387713          	andi	a4,a6,3
    3c34:	00078e13          	mv	t3,a5
    3c38:	02070663          	beqz	a4,3c64 <number+0x3a4>
    3c3c:	03000513          	li	a0,48
    3c40:	00287813          	andi	a6,a6,2
    3c44:	00a78023          	sb	a0,0(a5)
    3c48:	28080063          	beqz	a6,3ec8 <number+0x608>
    3c4c:	00a780a3          	sb	a0,1(a5)
    3c50:	00300813          	li	a6,3
    3c54:	2b071263          	bne	a4,a6,3ef8 <number+0x638>
    3c58:	00a78123          	sb	a0,2(a5)
    3c5c:	00378e13          	addi	t3,a5,3
    3c60:	ffc58513          	addi	a0,a1,-4
    3c64:	40e60833          	sub	a6,a2,a4
    3c68:	00e78733          	add	a4,a5,a4
    3c6c:	30303637          	lui	a2,0x30303
    3c70:	ffc87793          	andi	a5,a6,-4
    3c74:	00f705b3          	add	a1,a4,a5
    3c78:	03060613          	addi	a2,a2,48 # 30303030 <main+0x302fd8fc>
    3c7c:	00c72023          	sw	a2,0(a4)
    3c80:	00470713          	addi	a4,a4,4
    3c84:	feb71ce3          	bne	a4,a1,3c7c <number+0x3bc>
    3c88:	04f80663          	beq	a6,a5,3cd4 <number+0x414>
    3c8c:	40f50533          	sub	a0,a0,a5
    3c90:	00fe07b3          	add	a5,t3,a5
    3c94:	03000713          	li	a4,48
    3c98:	00e78023          	sb	a4,0(a5)
    3c9c:	02addc63          	bge	s11,a0,3cd4 <number+0x414>
    3ca0:	00e780a3          	sb	a4,1(a5)
    3ca4:	fff50613          	addi	a2,a0,-1
    3ca8:	02cdd663          	bge	s11,a2,3cd4 <number+0x414>
    3cac:	00e78123          	sb	a4,2(a5)
    3cb0:	ffe50613          	addi	a2,a0,-2
    3cb4:	02cdd063          	bge	s11,a2,3cd4 <number+0x414>
    3cb8:	00e781a3          	sb	a4,3(a5)
    3cbc:	ffd50613          	addi	a2,a0,-3
    3cc0:	00cdda63          	bge	s11,a2,3cd4 <number+0x414>
    3cc4:	00e78223          	sb	a4,4(a5)
    3cc8:	ffc50513          	addi	a0,a0,-4
    3ccc:	00add463          	bge	s11,a0,3cd4 <number+0x414>
    3cd0:	00e782a3          	sb	a4,5(a5)
    3cd4:	00188893          	addi	a7,a7,1
    3cd8:	006887b3          	add	a5,a7,t1
    3cdc:	01748733          	add	a4,s1,s7
    3ce0:	00078693          	mv	a3,a5
    3ce4:	fff48493          	addi	s1,s1,-1
    3ce8:	00074603          	lbu	a2,0(a4)
    3cec:	fff70713          	addi	a4,a4,-1
    3cf0:	00168693          	addi	a3,a3,1
    3cf4:	fec68fa3          	sb	a2,-1(a3)
    3cf8:	fee498e3          	bne	s1,a4,3ce8 <number+0x428>
    3cfc:	017787b3          	add	a5,a5,s7
    3d00:	00178893          	addi	a7,a5,1
    3d04:	00088513          	mv	a0,a7
    3d08:	0a805e63          	blez	s0,3dc4 <number+0x504>
    3d0c:	fff40613          	addi	a2,s0,-1
    3d10:	00500713          	li	a4,5
    3d14:	06c75663          	bge	a4,a2,3d80 <number+0x4c0>
    3d18:	fff7c693          	not	a3,a5
    3d1c:	0036f713          	andi	a4,a3,3
    3d20:	02070663          	beqz	a4,3d4c <number+0x48c>
    3d24:	02000613          	li	a2,32
    3d28:	0026f693          	andi	a3,a3,2
    3d2c:	00c780a3          	sb	a2,1(a5)
    3d30:	1a068263          	beqz	a3,3ed4 <number+0x614>
    3d34:	00c880a3          	sb	a2,1(a7)
    3d38:	0037f693          	andi	a3,a5,3
    3d3c:	1a069863          	bnez	a3,3eec <number+0x62c>
    3d40:	00c88123          	sb	a2,2(a7)
    3d44:	00478513          	addi	a0,a5,4
    3d48:	ffc40613          	addi	a2,s0,-4
    3d4c:	00e787b3          	add	a5,a5,a4
    3d50:	40e405b3          	sub	a1,s0,a4
    3d54:	00178793          	addi	a5,a5,1
    3d58:	ffc5f813          	andi	a6,a1,-4
    3d5c:	20202737          	lui	a4,0x20202
    3d60:	010786b3          	add	a3,a5,a6
    3d64:	02070713          	addi	a4,a4,32 # 20202020 <main+0x201fc8ec>
    3d68:	00e7a023          	sw	a4,0(a5)
    3d6c:	00478793          	addi	a5,a5,4
    3d70:	fef69ce3          	bne	a3,a5,3d68 <number+0x4a8>
    3d74:	05058663          	beq	a1,a6,3dc0 <number+0x500>
    3d78:	41060633          	sub	a2,a2,a6
    3d7c:	01050533          	add	a0,a0,a6
    3d80:	02000793          	li	a5,32
    3d84:	00f50023          	sb	a5,0(a0)
    3d88:	02c05c63          	blez	a2,3dc0 <number+0x500>
    3d8c:	00f500a3          	sb	a5,1(a0)
    3d90:	00100713          	li	a4,1
    3d94:	02e60663          	beq	a2,a4,3dc0 <number+0x500>
    3d98:	00f50123          	sb	a5,2(a0)
    3d9c:	00200713          	li	a4,2
    3da0:	02e60063          	beq	a2,a4,3dc0 <number+0x500>
    3da4:	00f501a3          	sb	a5,3(a0)
    3da8:	00300713          	li	a4,3
    3dac:	00e60a63          	beq	a2,a4,3dc0 <number+0x500>
    3db0:	00f50223          	sb	a5,4(a0)
    3db4:	00400713          	li	a4,4
    3db8:	00e60463          	beq	a2,a4,3dc0 <number+0x500>
    3dbc:	00f502a3          	sb	a5,5(a0)
    3dc0:	00888533          	add	a0,a7,s0
    3dc4:	09c12083          	lw	ra,156(sp)
    3dc8:	09812403          	lw	s0,152(sp)
    3dcc:	09412483          	lw	s1,148(sp)
    3dd0:	09012903          	lw	s2,144(sp)
    3dd4:	08812a03          	lw	s4,136(sp)
    3dd8:	08412a83          	lw	s5,132(sp)
    3ddc:	08012b03          	lw	s6,128(sp)
    3de0:	07c12b83          	lw	s7,124(sp)
    3de4:	07412c83          	lw	s9,116(sp)
    3de8:	07012d03          	lw	s10,112(sp)
    3dec:	06c12d83          	lw	s11,108(sp)
    3df0:	0a010113          	addi	sp,sp,160
    3df4:	00008067          	ret
    3df8:	09312623          	sw	s3,140(sp)
    3dfc:	07812c23          	sw	s8,120(sp)
    3e00:	00000d93          	li	s11,0
    3e04:	01c10493          	addi	s1,sp,28
    3e08:	00090593          	mv	a1,s2
    3e0c:	00050993          	mv	s3,a0
    3e10:	0c1010ef          	jal	56d0 <__umodsi3>
    3e14:	00aa8533          	add	a0,s5,a0
    3e18:	00054703          	lbu	a4,0(a0)
    3e1c:	000d8b93          	mv	s7,s11
    3e20:	001d8d93          	addi	s11,s11,1
    3e24:	01b48c33          	add	s8,s1,s11
    3e28:	00098513          	mv	a0,s3
    3e2c:	00090593          	mv	a1,s2
    3e30:	feec0fa3          	sb	a4,-1(s8)
    3e34:	055010ef          	jal	5688 <__hidden___udivsi3>
    3e38:	fd29f8e3          	bgeu	s3,s2,3e08 <number+0x548>
    3e3c:	08c12983          	lw	s3,140(sp)
    3e40:	07812c03          	lw	s8,120(sp)
    3e44:	b51ff06f          	j	3994 <number+0xd4>
    3e48:	00e78023          	sb	a4,0(a5)
    3e4c:	00178a13          	addi	s4,a5,1
    3e50:	0c0c9263          	bnez	s9,3f14 <number+0x654>
    3e54:	000a0793          	mv	a5,s4
    3e58:	0e0d1263          	bnez	s10,3f3c <number+0x67c>
    3e5c:	ffe00413          	li	s0,-2
    3e60:	dadff06f          	j	3c0c <number+0x34c>
    3e64:	02b00793          	li	a5,43
    3e68:	fff40413          	addi	s0,s0,-1
    3e6c:	00f12423          	sw	a5,8(sp)
    3e70:	af1ff06f          	j	3960 <number+0xa0>
    3e74:	00078a13          	mv	s4,a5
    3e78:	fff00413          	li	s0,-1
    3e7c:	07800793          	li	a5,120
    3e80:	03000713          	li	a4,48
    3e84:	00fa00a3          	sb	a5,1(s4)
    3e88:	00ea0023          	sb	a4,0(s4)
    3e8c:	002a0793          	addi	a5,s4,2
    3e90:	c79ff06f          	j	3b08 <number+0x248>
    3e94:	09312623          	sw	s3,140(sp)
    3e98:	07812c23          	sw	s8,120(sp)
    3e9c:	40a00533          	neg	a0,a0
    3ea0:	060c8e63          	beqz	s9,3f1c <number+0x65c>
    3ea4:	01000793          	li	a5,16
    3ea8:	0af90863          	beq	s2,a5,3f58 <number+0x698>
    3eac:	00800793          	li	a5,8
    3eb0:	08f90a63          	beq	s2,a5,3f44 <number+0x684>
    3eb4:	02d00793          	li	a5,45
    3eb8:	fff40413          	addi	s0,s0,-1
    3ebc:	00f12423          	sw	a5,8(sp)
    3ec0:	02000c93          	li	s9,32
    3ec4:	f3dff06f          	j	3e00 <number+0x540>
    3ec8:	ffe58513          	addi	a0,a1,-2
    3ecc:	00178e13          	addi	t3,a5,1
    3ed0:	d95ff06f          	j	3c64 <number+0x3a4>
    3ed4:	00278513          	addi	a0,a5,2
    3ed8:	ffe40613          	addi	a2,s0,-2
    3edc:	e71ff06f          	j	3d4c <number+0x48c>
    3ee0:	ffe40413          	addi	s0,s0,-2
    3ee4:	02000c93          	li	s9,32
    3ee8:	a95ff06f          	j	397c <number+0xbc>
    3eec:	00378513          	addi	a0,a5,3
    3ef0:	ffd40613          	addi	a2,s0,-3
    3ef4:	e59ff06f          	j	3d4c <number+0x48c>
    3ef8:	ffd58513          	addi	a0,a1,-3
    3efc:	00278e13          	addi	t3,a5,2
    3f00:	d65ff06f          	j	3c64 <number+0x3a4>
    3f04:	03000793          	li	a5,48
    3f08:	00fa0023          	sb	a5,0(s4)
    3f0c:	001a0793          	addi	a5,s4,1
    3f10:	bf9ff06f          	j	3b08 <number+0x248>
    3f14:	fff00413          	li	s0,-1
    3f18:	bddff06f          	j	3af4 <number+0x234>
    3f1c:	02d00793          	li	a5,45
    3f20:	fff40413          	addi	s0,s0,-1
    3f24:	00f12423          	sw	a5,8(sp)
    3f28:	ed9ff06f          	j	3e00 <number+0x540>
    3f2c:	03000713          	li	a4,48
    3f30:	00e78023          	sb	a4,0(a5)
    3f34:	00178793          	addi	a5,a5,1
    3f38:	f20d02e3          	beqz	s10,3e5c <number+0x59c>
    3f3c:	fff00413          	li	s0,-1
    3f40:	ccdff06f          	j	3c0c <number+0x34c>
    3f44:	02d00793          	li	a5,45
    3f48:	ffe40413          	addi	s0,s0,-2
    3f4c:	00f12423          	sw	a5,8(sp)
    3f50:	02000c93          	li	s9,32
    3f54:	eadff06f          	j	3e00 <number+0x540>
    3f58:	02d00793          	li	a5,45
    3f5c:	ffd40413          	addi	s0,s0,-3
    3f60:	00f12423          	sw	a5,8(sp)
    3f64:	02000c93          	li	s9,32
    3f68:	e99ff06f          	j	3e00 <number+0x540>
    3f6c:	00080413          	mv	s0,a6
    3f70:	c9dff06f          	j	3c0c <number+0x34c>

00003f74 <uart_send_char>:
    3f74:	000107b7          	lui	a5,0x10
    3f78:	00a78023          	sb	a0,0(a5) # 10000 <main+0xa8cc>
    3f7c:	00008067          	ret

00003f80 <ee_printf>:
    3f80:	b5010113          	addi	sp,sp,-1200
    3f84:	48912223          	sw	s1,1156(sp)
    3f88:	48112623          	sw	ra,1164(sp)
    3f8c:	47612823          	sw	s6,1136(sp)
    3f90:	48b12a23          	sw	a1,1172(sp)
    3f94:	48c12c23          	sw	a2,1176(sp)
    3f98:	48d12e23          	sw	a3,1180(sp)
    3f9c:	4ae12023          	sw	a4,1184(sp)
    3fa0:	4af12223          	sw	a5,1188(sp)
    3fa4:	4b012423          	sw	a6,1192(sp)
    3fa8:	4b112623          	sw	a7,1196(sp)
    3fac:	00054783          	lbu	a5,0(a0)
    3fb0:	49410493          	addi	s1,sp,1172
    3fb4:	02912a23          	sw	s1,52(sp)
    3fb8:	00079463          	bnez	a5,3fc0 <ee_printf+0x40>
    3fbc:	1380106f          	j	50f4 <ee_printf+0x1174>
    3fc0:	49212023          	sw	s2,1152(sp)
    3fc4:	80000937          	lui	s2,0x80000
    3fc8:	48812423          	sw	s0,1160(sp)
    3fcc:	47312e23          	sw	s3,1148(sp)
    3fd0:	47412c23          	sw	s4,1144(sp)
    3fd4:	47512a23          	sw	s5,1140(sp)
    3fd8:	47712623          	sw	s7,1132(sp)
    3fdc:	05010813          	addi	a6,sp,80
    3fe0:	21890913          	addi	s2,s2,536 # 80000218 <main+0x7fffaae4>
    3fe4:	02500993          	li	s3,37
    3fe8:	01000413          	li	s0,16
    3fec:	00900a93          	li	s5,9
    3ff0:	02e00a13          	li	s4,46
    3ff4:	00048b13          	mv	s6,s1
    3ff8:	07378e63          	beq	a5,s3,4074 <ee_printf+0xf4>
    3ffc:	00f80023          	sb	a5,0(a6)
    4000:	00154783          	lbu	a5,1(a0)
    4004:	00180813          	addi	a6,a6,1
    4008:	00150513          	addi	a0,a0,1
    400c:	fe0796e3          	bnez	a5,3ff8 <ee_printf+0x78>
    4010:	05010b13          	addi	s6,sp,80
    4014:	48812403          	lw	s0,1160(sp)
    4018:	48012903          	lw	s2,1152(sp)
    401c:	47c12983          	lw	s3,1148(sp)
    4020:	47812a03          	lw	s4,1144(sp)
    4024:	47412a83          	lw	s5,1140(sp)
    4028:	46c12b83          	lw	s7,1132(sp)
    402c:	00080023          	sb	zero,0(a6)
    4030:	05014703          	lbu	a4,80(sp)
    4034:	00071463          	bnez	a4,403c <ee_printf+0xbc>
    4038:	0d40106f          	j	510c <ee_printf+0x118c>
    403c:	000b0793          	mv	a5,s6
    4040:	000106b7          	lui	a3,0x10
    4044:	00078513          	mv	a0,a5
    4048:	00e68023          	sb	a4,0(a3) # 10000 <main+0xa8cc>
    404c:	0017c703          	lbu	a4,1(a5)
    4050:	00178793          	addi	a5,a5,1
    4054:	fe0718e3          	bnez	a4,4044 <ee_printf+0xc4>
    4058:	48c12083          	lw	ra,1164(sp)
    405c:	41650533          	sub	a0,a0,s6
    4060:	48412483          	lw	s1,1156(sp)
    4064:	47012b03          	lw	s6,1136(sp)
    4068:	00150513          	addi	a0,a0,1
    406c:	4b010113          	addi	sp,sp,1200
    4070:	00008067          	ret
    4074:	00000793          	li	a5,0
    4078:	00154603          	lbu	a2,1(a0)
    407c:	00150493          	addi	s1,a0,1
    4080:	fe060713          	addi	a4,a2,-32
    4084:	0ff77713          	zext.b	a4,a4
    4088:	00e46a63          	bltu	s0,a4,409c <ee_printf+0x11c>
    408c:	00271713          	slli	a4,a4,0x2
    4090:	01270733          	add	a4,a4,s2
    4094:	00072703          	lw	a4,0(a4)
    4098:	00070067          	jr	a4
    409c:	fd060713          	addi	a4,a2,-48
    40a0:	0ff77713          	zext.b	a4,a4
    40a4:	10eaf663          	bgeu	s5,a4,41b0 <ee_printf+0x230>
    40a8:	02a00713          	li	a4,42
    40ac:	fff00693          	li	a3,-1
    40b0:	12e60c63          	beq	a2,a4,41e8 <ee_printf+0x268>
    40b4:	fff00713          	li	a4,-1
    40b8:	0d460663          	beq	a2,s4,4184 <ee_printf+0x204>
    40bc:	0df67593          	andi	a1,a2,223
    40c0:	04c00513          	li	a0,76
    40c4:	08a59c63          	bne	a1,a0,415c <ee_printf+0x1dc>
    40c8:	00060893          	mv	a7,a2
    40cc:	0014c603          	lbu	a2,1(s1)
    40d0:	03700513          	li	a0,55
    40d4:	00148b93          	addi	s7,s1,1
    40d8:	fbf60593          	addi	a1,a2,-65
    40dc:	0ff5f593          	zext.b	a1,a1
    40e0:	04b56c63          	bltu	a0,a1,4138 <ee_printf+0x1b8>
    40e4:	80000537          	lui	a0,0x80000
    40e8:	00259593          	slli	a1,a1,0x2
    40ec:	25c50513          	addi	a0,a0,604 # 8000025c <main+0x7fffab28>
    40f0:	00a585b3          	add	a1,a1,a0
    40f4:	0005a583          	lw	a1,0(a1)
    40f8:	00058067          	jr	a1
    40fc:	0017e793          	ori	a5,a5,1
    4100:	00048513          	mv	a0,s1
    4104:	f75ff06f          	j	4078 <ee_printf+0xf8>
    4108:	0107e793          	ori	a5,a5,16
    410c:	00048513          	mv	a0,s1
    4110:	f69ff06f          	j	4078 <ee_printf+0xf8>
    4114:	0047e793          	ori	a5,a5,4
    4118:	00048513          	mv	a0,s1
    411c:	f5dff06f          	j	4078 <ee_printf+0xf8>
    4120:	0207e793          	ori	a5,a5,32
    4124:	00048513          	mv	a0,s1
    4128:	f51ff06f          	j	4078 <ee_printf+0xf8>
    412c:	0087e793          	ori	a5,a5,8
    4130:	00048513          	mv	a0,s1
    4134:	f45ff06f          	j	4078 <ee_printf+0xf8>
    4138:	000b8493          	mv	s1,s7
    413c:	02500793          	li	a5,37
    4140:	46f60263          	beq	a2,a5,45a4 <ee_printf+0x624>
    4144:	00f80023          	sb	a5,0(a6)
    4148:	0004c603          	lbu	a2,0(s1)
    414c:	44061a63          	bnez	a2,45a0 <ee_printf+0x620>
    4150:	05010b13          	addi	s6,sp,80
    4154:	00180813          	addi	a6,a6,1
    4158:	ebdff06f          	j	4014 <ee_printf+0x94>
    415c:	fbf60593          	addi	a1,a2,-65
    4160:	0ff5f593          	zext.b	a1,a1
    4164:	03700513          	li	a0,55
    4168:	fcb56ae3          	bltu	a0,a1,413c <ee_printf+0x1bc>
    416c:	80000537          	lui	a0,0x80000
    4170:	00259593          	slli	a1,a1,0x2
    4174:	33c50513          	addi	a0,a0,828 # 8000033c <main+0x7fffac08>
    4178:	00a585b3          	add	a1,a1,a0
    417c:	0005a583          	lw	a1,0(a1)
    4180:	00058067          	jr	a1
    4184:	0014c603          	lbu	a2,1(s1)
    4188:	00900893          	li	a7,9
    418c:	00148513          	addi	a0,s1,1
    4190:	fd060713          	addi	a4,a2,-48
    4194:	0ff77713          	zext.b	a4,a4
    4198:	3ae8f463          	bgeu	a7,a4,4540 <ee_printf+0x5c0>
    419c:	02a00713          	li	a4,42
    41a0:	3ee60063          	beq	a2,a4,4580 <ee_printf+0x600>
    41a4:	00050493          	mv	s1,a0
    41a8:	00000713          	li	a4,0
    41ac:	f11ff06f          	j	40bc <ee_printf+0x13c>
    41b0:	00900593          	li	a1,9
    41b4:	00000513          	li	a0,0
    41b8:	00251693          	slli	a3,a0,0x2
    41bc:	00a686b3          	add	a3,a3,a0
    41c0:	00148493          	addi	s1,s1,1
    41c4:	00169693          	slli	a3,a3,0x1
    41c8:	00c686b3          	add	a3,a3,a2
    41cc:	0004c603          	lbu	a2,0(s1)
    41d0:	fd068513          	addi	a0,a3,-48
    41d4:	fd060713          	addi	a4,a2,-48
    41d8:	0ff77713          	zext.b	a4,a4
    41dc:	fce5fee3          	bgeu	a1,a4,41b8 <ee_printf+0x238>
    41e0:	00050693          	mv	a3,a0
    41e4:	ed1ff06f          	j	40b4 <ee_printf+0x134>
    41e8:	000b2683          	lw	a3,0(s6)
    41ec:	00254603          	lbu	a2,2(a0)
    41f0:	00250493          	addi	s1,a0,2
    41f4:	0006c663          	bltz	a3,4200 <ee_printf+0x280>
    41f8:	004b0b13          	addi	s6,s6,4
    41fc:	eb9ff06f          	j	40b4 <ee_printf+0x134>
    4200:	40d006b3          	neg	a3,a3
    4204:	0107e793          	ori	a5,a5,16
    4208:	004b0b13          	addi	s6,s6,4
    420c:	ea9ff06f          	j	40b4 <ee_printf+0x134>
    4210:	0407e793          	ori	a5,a5,64
    4214:	01000613          	li	a2,16
    4218:	000b2583          	lw	a1,0(s6)
    421c:	004b0b13          	addi	s6,s6,4
    4220:	00080513          	mv	a0,a6
    4224:	e9cff0ef          	jal	38c0 <number>
    4228:	001bc783          	lbu	a5,1(s7)
    422c:	00050813          	mv	a6,a0
    4230:	001b8513          	addi	a0,s7,1
    4234:	dc0792e3          	bnez	a5,3ff8 <ee_printf+0x78>
    4238:	dd9ff06f          	j	4010 <ee_printf+0x90>
    423c:	00048b93          	mv	s7,s1
    4240:	00a00613          	li	a2,10
    4244:	fd5ff06f          	j	4218 <ee_printf+0x298>
    4248:	000b8493          	mv	s1,s7
    424c:	0107f793          	andi	a5,a5,16
    4250:	004b0893          	addi	a7,s6,4
    4254:	00148513          	addi	a0,s1,1
    4258:	38078063          	beqz	a5,45d8 <ee_printf+0x658>
    425c:	000b2783          	lw	a5,0(s6)
    4260:	fff68593          	addi	a1,a3,-1
    4264:	00180613          	addi	a2,a6,1
    4268:	00f80023          	sb	a5,0(a6)
    426c:	00b04463          	bgtz	a1,4274 <ee_printf+0x2f4>
    4270:	3d80106f          	j	5648 <ee_printf+0x16c8>
    4274:	ffe68e13          	addi	t3,a3,-2
    4278:	00500793          	li	a5,5
    427c:	00058313          	mv	t1,a1
    4280:	00060e93          	mv	t4,a2
    4284:	07c7da63          	bge	a5,t3,42f8 <ee_printf+0x378>
    4288:	40c00733          	neg	a4,a2
    428c:	00377793          	andi	a5,a4,3
    4290:	02078a63          	beqz	a5,42c4 <ee_printf+0x344>
    4294:	02000613          	li	a2,32
    4298:	00277713          	andi	a4,a4,2
    429c:	00c800a3          	sb	a2,1(a6)
    42a0:	00071463          	bnez	a4,42a8 <ee_printf+0x328>
    42a4:	2900106f          	j	5534 <ee_printf+0x15b4>
    42a8:	00c80123          	sb	a2,2(a6)
    42ac:	00300713          	li	a4,3
    42b0:	00e78463          	beq	a5,a4,42b8 <ee_printf+0x338>
    42b4:	3080106f          	j	55bc <ee_printf+0x163c>
    42b8:	00c801a3          	sb	a2,3(a6)
    42bc:	ffc68593          	addi	a1,a3,-4
    42c0:	00480613          	addi	a2,a6,4
    42c4:	40f30e33          	sub	t3,t1,a5
    42c8:	00178793          	addi	a5,a5,1
    42cc:	00f807b3          	add	a5,a6,a5
    42d0:	20202737          	lui	a4,0x20202
    42d4:	ffce7813          	andi	a6,t3,-4
    42d8:	010786b3          	add	a3,a5,a6
    42dc:	02070713          	addi	a4,a4,32 # 20202020 <main+0x201fc8ec>
    42e0:	00e7a023          	sw	a4,0(a5)
    42e4:	00478793          	addi	a5,a5,4
    42e8:	fed79ce3          	bne	a5,a3,42e0 <ee_printf+0x360>
    42ec:	050e0863          	beq	t3,a6,433c <ee_printf+0x3bc>
    42f0:	410585b3          	sub	a1,a1,a6
    42f4:	01060633          	add	a2,a2,a6
    42f8:	02000793          	li	a5,32
    42fc:	00f60023          	sb	a5,0(a2)
    4300:	00100713          	li	a4,1
    4304:	02b75c63          	bge	a4,a1,433c <ee_printf+0x3bc>
    4308:	00f600a3          	sb	a5,1(a2)
    430c:	00200713          	li	a4,2
    4310:	02e58663          	beq	a1,a4,433c <ee_printf+0x3bc>
    4314:	00f60123          	sb	a5,2(a2)
    4318:	00300713          	li	a4,3
    431c:	02e58063          	beq	a1,a4,433c <ee_printf+0x3bc>
    4320:	00f601a3          	sb	a5,3(a2)
    4324:	00400713          	li	a4,4
    4328:	00e58a63          	beq	a1,a4,433c <ee_printf+0x3bc>
    432c:	00f60223          	sb	a5,4(a2)
    4330:	00500713          	li	a4,5
    4334:	00e58463          	beq	a1,a4,433c <ee_printf+0x3bc>
    4338:	00f602a3          	sb	a5,5(a2)
    433c:	01d30833          	add	a6,t1,t4
    4340:	0014c783          	lbu	a5,1(s1)
    4344:	00088b13          	mv	s6,a7
    4348:	ca0798e3          	bnez	a5,3ff8 <ee_printf+0x78>
    434c:	cc5ff06f          	j	4010 <ee_printf+0x90>
    4350:	000b8493          	mv	s1,s7
    4354:	000b2503          	lw	a0,0(s6)
    4358:	004b0b13          	addi	s6,s6,4
    435c:	26050663          	beqz	a0,45c8 <ee_printf+0x648>
    4360:	00054603          	lbu	a2,0(a0)
    4364:	0107f793          	andi	a5,a5,16
    4368:	00061463          	bnez	a2,4370 <ee_printf+0x3f0>
    436c:	27c0106f          	j	55e8 <ee_printf+0x1668>
    4370:	00e50733          	add	a4,a0,a4
    4374:	00050613          	mv	a2,a0
    4378:	00e60a63          	beq	a2,a4,438c <ee_printf+0x40c>
    437c:	00164583          	lbu	a1,1(a2)
    4380:	00160613          	addi	a2,a2,1
    4384:	fe059ae3          	bnez	a1,4378 <ee_printf+0x3f8>
    4388:	00060713          	mv	a4,a2
    438c:	40a70733          	sub	a4,a4,a0
    4390:	32078a63          	beqz	a5,46c4 <ee_printf+0x744>
    4394:	08e05863          	blez	a4,4424 <ee_printf+0x4a4>
    4398:	fff70793          	addi	a5,a4,-1
    439c:	00600613          	li	a2,6
    43a0:	00f66463          	bltu	a2,a5,43a8 <ee_printf+0x428>
    43a4:	19c0106f          	j	5540 <ee_printf+0x15c0>
    43a8:	010565b3          	or	a1,a0,a6
    43ac:	0035f593          	andi	a1,a1,3
    43b0:	00050793          	mv	a5,a0
    43b4:	00080613          	mv	a2,a6
    43b8:	00058463          	beqz	a1,43c0 <ee_printf+0x440>
    43bc:	1840106f          	j	5540 <ee_printf+0x15c0>
    43c0:	40a805b3          	sub	a1,a6,a0
    43c4:	fff58593          	addi	a1,a1,-1
    43c8:	0035b593          	sltiu	a1,a1,3
    43cc:	00058463          	beqz	a1,43d4 <ee_printf+0x454>
    43d0:	1700106f          	j	5540 <ee_printf+0x15c0>
    43d4:	ffc77893          	andi	a7,a4,-4
    43d8:	00a88533          	add	a0,a7,a0
    43dc:	0007a583          	lw	a1,0(a5)
    43e0:	00478793          	addi	a5,a5,4
    43e4:	00460613          	addi	a2,a2,4
    43e8:	feb62e23          	sw	a1,-4(a2)
    43ec:	fef518e3          	bne	a0,a5,43dc <ee_printf+0x45c>
    43f0:	02e88863          	beq	a7,a4,4420 <ee_printf+0x4a0>
    43f4:	00054583          	lbu	a1,0(a0)
    43f8:	01180633          	add	a2,a6,a7
    43fc:	00188793          	addi	a5,a7,1
    4400:	00b60023          	sb	a1,0(a2)
    4404:	00e7de63          	bge	a5,a4,4420 <ee_printf+0x4a0>
    4408:	00154783          	lbu	a5,1(a0)
    440c:	00288893          	addi	a7,a7,2
    4410:	00f600a3          	sb	a5,1(a2)
    4414:	00e8d663          	bge	a7,a4,4420 <ee_printf+0x4a0>
    4418:	00254783          	lbu	a5,2(a0)
    441c:	00f60123          	sb	a5,2(a2)
    4420:	00e80833          	add	a6,a6,a4
    4424:	00148513          	addi	a0,s1,1
    4428:	0cd75c63          	bge	a4,a3,4500 <ee_printf+0x580>
    442c:	40e685b3          	sub	a1,a3,a4
    4430:	fff58893          	addi	a7,a1,-1
    4434:	00500613          	li	a2,5
    4438:	fff68e93          	addi	t4,a3,-1
    443c:	00080e13          	mv	t3,a6
    4440:	07167e63          	bgeu	a2,a7,44bc <ee_printf+0x53c>
    4444:	41000633          	neg	a2,a6
    4448:	00367793          	andi	a5,a2,3
    444c:	00080313          	mv	t1,a6
    4450:	02078e63          	beqz	a5,448c <ee_printf+0x50c>
    4454:	02000893          	li	a7,32
    4458:	00267613          	andi	a2,a2,2
    445c:	01180023          	sb	a7,0(a6)
    4460:	ffe68e93          	addi	t4,a3,-2
    4464:	00180313          	addi	t1,a6,1
    4468:	02060263          	beqz	a2,448c <ee_printf+0x50c>
    446c:	011800a3          	sb	a7,1(a6)
    4470:	00300613          	li	a2,3
    4474:	ffd68e93          	addi	t4,a3,-3
    4478:	00280313          	addi	t1,a6,2
    447c:	00c79863          	bne	a5,a2,448c <ee_printf+0x50c>
    4480:	01180123          	sb	a7,2(a6)
    4484:	ffc68e93          	addi	t4,a3,-4
    4488:	00380313          	addi	t1,a6,3
    448c:	40f588b3          	sub	a7,a1,a5
    4490:	202026b7          	lui	a3,0x20202
    4494:	00f807b3          	add	a5,a6,a5
    4498:	ffc8f813          	andi	a6,a7,-4
    449c:	01078633          	add	a2,a5,a6
    44a0:	02068693          	addi	a3,a3,32 # 20202020 <main+0x201fc8ec>
    44a4:	00d7a023          	sw	a3,0(a5)
    44a8:	00478793          	addi	a5,a5,4
    44ac:	fec79ce3          	bne	a5,a2,44a4 <ee_printf+0x524>
    44b0:	05088663          	beq	a7,a6,44fc <ee_printf+0x57c>
    44b4:	410e8eb3          	sub	t4,t4,a6
    44b8:	01030833          	add	a6,t1,a6
    44bc:	02000693          	li	a3,32
    44c0:	00d80023          	sb	a3,0(a6)
    44c4:	03d75c63          	bge	a4,t4,44fc <ee_printf+0x57c>
    44c8:	00d800a3          	sb	a3,1(a6)
    44cc:	fffe8793          	addi	a5,t4,-1
    44d0:	02f75663          	bge	a4,a5,44fc <ee_printf+0x57c>
    44d4:	00d80123          	sb	a3,2(a6)
    44d8:	ffee8793          	addi	a5,t4,-2
    44dc:	02f75063          	bge	a4,a5,44fc <ee_printf+0x57c>
    44e0:	00d801a3          	sb	a3,3(a6)
    44e4:	ffde8793          	addi	a5,t4,-3
    44e8:	00f75a63          	bge	a4,a5,44fc <ee_printf+0x57c>
    44ec:	00d80223          	sb	a3,4(a6)
    44f0:	ffce8793          	addi	a5,t4,-4
    44f4:	00f75463          	bge	a4,a5,44fc <ee_printf+0x57c>
    44f8:	00d802a3          	sb	a3,5(a6)
    44fc:	01c58833          	add	a6,a1,t3
    4500:	0014c783          	lbu	a5,1(s1)
    4504:	ae079ae3          	bnez	a5,3ff8 <ee_printf+0x78>
    4508:	b09ff06f          	j	4010 <ee_printf+0x90>
    450c:	000b8493          	mv	s1,s7
    4510:	fff00613          	li	a2,-1
    4514:	0ac68463          	beq	a3,a2,45bc <ee_printf+0x63c>
    4518:	000b2583          	lw	a1,0(s6)
    451c:	00080513          	mv	a0,a6
    4520:	01000613          	li	a2,16
    4524:	b9cff0ef          	jal	38c0 <number>
    4528:	0014c783          	lbu	a5,1(s1)
    452c:	00050813          	mv	a6,a0
    4530:	004b0b13          	addi	s6,s6,4
    4534:	00148513          	addi	a0,s1,1
    4538:	ac0790e3          	bnez	a5,3ff8 <ee_printf+0x78>
    453c:	ad5ff06f          	j	4010 <ee_printf+0x90>
    4540:	00000313          	li	t1,0
    4544:	00231713          	slli	a4,t1,0x2
    4548:	00670733          	add	a4,a4,t1
    454c:	00150513          	addi	a0,a0,1
    4550:	00171713          	slli	a4,a4,0x1
    4554:	00c70733          	add	a4,a4,a2
    4558:	00054603          	lbu	a2,0(a0)
    455c:	fd070313          	addi	t1,a4,-48
    4560:	fd060593          	addi	a1,a2,-48
    4564:	0ff5f593          	zext.b	a1,a1
    4568:	fcb8fee3          	bgeu	a7,a1,4544 <ee_printf+0x5c4>
    456c:	fff34593          	not	a1,t1
    4570:	41f5d593          	srai	a1,a1,0x1f
    4574:	00050493          	mv	s1,a0
    4578:	00b37733          	and	a4,t1,a1
    457c:	b41ff06f          	j	40bc <ee_printf+0x13c>
    4580:	000b2703          	lw	a4,0(s6)
    4584:	0024c603          	lbu	a2,2(s1)
    4588:	004b0b13          	addi	s6,s6,4
    458c:	fff74593          	not	a1,a4
    4590:	41f5d593          	srai	a1,a1,0x1f
    4594:	00b77733          	and	a4,a4,a1
    4598:	00248493          	addi	s1,s1,2
    459c:	b21ff06f          	j	40bc <ee_printf+0x13c>
    45a0:	00180813          	addi	a6,a6,1
    45a4:	00c80023          	sb	a2,0(a6)
    45a8:	0014c783          	lbu	a5,1(s1)
    45ac:	00180813          	addi	a6,a6,1
    45b0:	00148513          	addi	a0,s1,1
    45b4:	a40792e3          	bnez	a5,3ff8 <ee_printf+0x78>
    45b8:	a59ff06f          	j	4010 <ee_printf+0x90>
    45bc:	0017e793          	ori	a5,a5,1
    45c0:	00800693          	li	a3,8
    45c4:	f55ff06f          	j	4518 <ee_printf+0x598>
    45c8:	80001537          	lui	a0,0x80001
    45cc:	0107f793          	andi	a5,a5,16
    45d0:	ae050513          	addi	a0,a0,-1312 # 80000ae0 <main+0x7fffb3ac>
    45d4:	d9dff06f          	j	4370 <ee_printf+0x3f0>
    45d8:	00100793          	li	a5,1
    45dc:	66d7dae3          	bge	a5,a3,5450 <ee_printf+0x14d0>
    45e0:	ffe68613          	addi	a2,a3,-2
    45e4:	00500793          	li	a5,5
    45e8:	fff68593          	addi	a1,a3,-1
    45ec:	00080e13          	mv	t3,a6
    45f0:	06c7dc63          	bge	a5,a2,4668 <ee_printf+0x6e8>
    45f4:	41000733          	neg	a4,a6
    45f8:	00377793          	andi	a5,a4,3
    45fc:	00080e93          	mv	t4,a6
    4600:	02078a63          	beqz	a5,4634 <ee_printf+0x6b4>
    4604:	02000593          	li	a1,32
    4608:	00277713          	andi	a4,a4,2
    460c:	00b80023          	sb	a1,0(a6)
    4610:	00071463          	bnez	a4,4618 <ee_printf+0x698>
    4614:	7f90006f          	j	560c <ee_printf+0x168c>
    4618:	00b800a3          	sb	a1,1(a6)
    461c:	00300713          	li	a4,3
    4620:	00e78463          	beq	a5,a4,4628 <ee_printf+0x6a8>
    4624:	00c0106f          	j	5630 <ee_printf+0x16b0>
    4628:	00b80123          	sb	a1,2(a6)
    462c:	00380e93          	addi	t4,a6,3
    4630:	ffc68593          	addi	a1,a3,-4
    4634:	40f68333          	sub	t1,a3,a5
    4638:	fff30313          	addi	t1,t1,-1
    463c:	00f807b3          	add	a5,a6,a5
    4640:	20202737          	lui	a4,0x20202
    4644:	ffc37813          	andi	a6,t1,-4
    4648:	00f80633          	add	a2,a6,a5
    464c:	02070713          	addi	a4,a4,32 # 20202020 <main+0x201fc8ec>
    4650:	00e7a023          	sw	a4,0(a5)
    4654:	00478793          	addi	a5,a5,4
    4658:	fef61ce3          	bne	a2,a5,4650 <ee_printf+0x6d0>
    465c:	04680863          	beq	a6,t1,46ac <ee_printf+0x72c>
    4660:	410585b3          	sub	a1,a1,a6
    4664:	010e8833          	add	a6,t4,a6
    4668:	02000793          	li	a5,32
    466c:	00f80023          	sb	a5,0(a6)
    4670:	00100713          	li	a4,1
    4674:	02b75c63          	bge	a4,a1,46ac <ee_printf+0x72c>
    4678:	00f800a3          	sb	a5,1(a6)
    467c:	00200713          	li	a4,2
    4680:	02e58663          	beq	a1,a4,46ac <ee_printf+0x72c>
    4684:	00f80123          	sb	a5,2(a6)
    4688:	00300713          	li	a4,3
    468c:	02e58063          	beq	a1,a4,46ac <ee_printf+0x72c>
    4690:	00f801a3          	sb	a5,3(a6)
    4694:	00400713          	li	a4,4
    4698:	00e58a63          	beq	a1,a4,46ac <ee_printf+0x72c>
    469c:	00f80223          	sb	a5,4(a6)
    46a0:	00500713          	li	a4,5
    46a4:	00e58463          	beq	a1,a4,46ac <ee_printf+0x72c>
    46a8:	00f802a3          	sb	a5,5(a6)
    46ac:	000b2703          	lw	a4,0(s6)
    46b0:	fffe0793          	addi	a5,t3,-1
    46b4:	00d787b3          	add	a5,a5,a3
    46b8:	00e78023          	sb	a4,0(a5)
    46bc:	00178813          	addi	a6,a5,1
    46c0:	c81ff06f          	j	4340 <ee_printf+0x3c0>
    46c4:	fff68593          	addi	a1,a3,-1
    46c8:	5ad754e3          	bge	a4,a3,5470 <ee_printf+0x14f0>
    46cc:	40e688b3          	sub	a7,a3,a4
    46d0:	fff88613          	addi	a2,a7,-1
    46d4:	00500793          	li	a5,5
    46d8:	00080e93          	mv	t4,a6
    46dc:	06c7f663          	bgeu	a5,a2,4748 <ee_printf+0x7c8>
    46e0:	41000633          	neg	a2,a6
    46e4:	00367793          	andi	a5,a2,3
    46e8:	00080e13          	mv	t3,a6
    46ec:	02078663          	beqz	a5,4718 <ee_printf+0x798>
    46f0:	02000593          	li	a1,32
    46f4:	00267613          	andi	a2,a2,2
    46f8:	00b80023          	sb	a1,0(a6)
    46fc:	700602e3          	beqz	a2,5600 <ee_printf+0x1680>
    4700:	00b800a3          	sb	a1,1(a6)
    4704:	00300613          	li	a2,3
    4708:	72c79ae3          	bne	a5,a2,563c <ee_printf+0x16bc>
    470c:	00b80123          	sb	a1,2(a6)
    4710:	00380e13          	addi	t3,a6,3
    4714:	ffc68593          	addi	a1,a3,-4
    4718:	40f88333          	sub	t1,a7,a5
    471c:	202026b7          	lui	a3,0x20202
    4720:	00f807b3          	add	a5,a6,a5
    4724:	ffc37813          	andi	a6,t1,-4
    4728:	00f80633          	add	a2,a6,a5
    472c:	02068693          	addi	a3,a3,32 # 20202020 <main+0x201fc8ec>
    4730:	00d7a023          	sw	a3,0(a5)
    4734:	00478793          	addi	a5,a5,4
    4738:	fef61ce3          	bne	a2,a5,4730 <ee_printf+0x7b0>
    473c:	04680663          	beq	a6,t1,4788 <ee_printf+0x808>
    4740:	410585b3          	sub	a1,a1,a6
    4744:	010e0833          	add	a6,t3,a6
    4748:	02000793          	li	a5,32
    474c:	00f80023          	sb	a5,0(a6)
    4750:	02b75c63          	bge	a4,a1,4788 <ee_printf+0x808>
    4754:	00f800a3          	sb	a5,1(a6)
    4758:	fff58693          	addi	a3,a1,-1
    475c:	02d75663          	bge	a4,a3,4788 <ee_printf+0x808>
    4760:	00f80123          	sb	a5,2(a6)
    4764:	ffe58693          	addi	a3,a1,-2
    4768:	02d75063          	bge	a4,a3,4788 <ee_printf+0x808>
    476c:	00f801a3          	sb	a5,3(a6)
    4770:	ffd58693          	addi	a3,a1,-3
    4774:	00d75a63          	bge	a4,a3,4788 <ee_printf+0x808>
    4778:	00f80223          	sb	a5,4(a6)
    477c:	ffc58593          	addi	a1,a1,-4
    4780:	00b75463          	bge	a4,a1,4788 <ee_printf+0x808>
    4784:	00f802a3          	sb	a5,5(a6)
    4788:	01d88833          	add	a6,a7,t4
    478c:	fff70693          	addi	a3,a4,-1
    4790:	c05ff06f          	j	4394 <ee_printf+0x414>
    4794:	06c00613          	li	a2,108
    4798:	0027e793          	ori	a5,a5,2
    479c:	aac882e3          	beq	a7,a2,4240 <ee_printf+0x2c0>
    47a0:	000b2583          	lw	a1,0(s6)
    47a4:	00a00613          	li	a2,10
    47a8:	004b0b13          	addi	s6,s6,4
    47ac:	a75ff06f          	j	4220 <ee_printf+0x2a0>
    47b0:	47a12023          	sw	s10,1120(sp)
    47b4:	06c00713          	li	a4,108
    47b8:	1ae886e3          	beq	a7,a4,5164 <ee_printf+0x11e4>
    47bc:	000b2e83          	lw	t4,0(s6)
    47c0:	004b0d13          	addi	s10,s6,4
    47c4:	000ec483          	lbu	s1,0(t4)
    47c8:	100482e3          	beqz	s1,50cc <ee_printf+0x114c>
    47cc:	06300613          	li	a2,99
    47d0:	369650e3          	bge	a2,s1,5330 <ee_printf+0x13b0>
    47d4:	06400593          	li	a1,100
    47d8:	00048513          	mv	a0,s1
    47dc:	01012823          	sw	a6,16(sp)
    47e0:	01d12623          	sw	t4,12(sp)
    47e4:	00d12423          	sw	a3,8(sp)
    47e8:	00f12223          	sw	a5,4(sp)
    47ec:	695000ef          	jal	5680 <__divsi3>
    47f0:	80001737          	lui	a4,0x80001
    47f4:	a9070b13          	addi	s6,a4,-1392 # 80000a90 <main+0x7fffb35c>
    47f8:	00ab0633          	add	a2,s6,a0
    47fc:	00064603          	lbu	a2,0(a2)
    4800:	00048513          	mv	a0,s1
    4804:	06400593          	li	a1,100
    4808:	02c10c23          	sb	a2,56(sp)
    480c:	6f9000ef          	jal	5704 <__modsi3>
    4810:	00a00593          	li	a1,10
    4814:	00050493          	mv	s1,a0
    4818:	669000ef          	jal	5680 <__divsi3>
    481c:	00ab0633          	add	a2,s6,a0
    4820:	00064603          	lbu	a2,0(a2)
    4824:	00048513          	mv	a0,s1
    4828:	00a00593          	li	a1,10
    482c:	02c10ca3          	sb	a2,57(sp)
    4830:	6d5000ef          	jal	5704 <__modsi3>
    4834:	00412783          	lw	a5,4(sp)
    4838:	00812683          	lw	a3,8(sp)
    483c:	00c12e83          	lw	t4,12(sp)
    4840:	01012803          	lw	a6,16(sp)
    4844:	00050493          	mv	s1,a0
    4848:	00900893          	li	a7,9
    484c:	00800613          	li	a2,8
    4850:	00700e13          	li	t3,7
    4854:	00600313          	li	t1,6
    4858:	00500f13          	li	t5,5
    485c:	00400f93          	li	t6,4
    4860:	00300293          	li	t0,3
    4864:	00200593          	li	a1,2
    4868:	009b0733          	add	a4,s6,s1
    486c:	00074703          	lbu	a4,0(a4)
    4870:	002585b3          	add	a1,a1,sp
    4874:	02e58c23          	sb	a4,56(a1)
    4878:	001ec483          	lbu	s1,1(t4)
    487c:	02e00593          	li	a1,46
    4880:	00228733          	add	a4,t0,sp
    4884:	02b70c23          	sb	a1,56(a4)
    4888:	02048ae3          	beqz	s1,50bc <ee_printf+0x113c>
    488c:	06300593          	li	a1,99
    4890:	1e95dee3          	bge	a1,s1,528c <ee_printf+0x130c>
    4894:	03010713          	addi	a4,sp,48
    4898:	00f12423          	sw	a5,8(sp)
    489c:	420f8793          	addi	a5,t6,1056
    48a0:	00e78fb3          	add	t6,a5,a4
    48a4:	06400593          	li	a1,100
    48a8:	00048513          	mv	a0,s1
    48ac:	03012623          	sw	a6,44(sp)
    48b0:	02c12423          	sw	a2,40(sp)
    48b4:	02612223          	sw	t1,36(sp)
    48b8:	03112023          	sw	a7,32(sp)
    48bc:	01c12e23          	sw	t3,28(sp)
    48c0:	00512a23          	sw	t0,20(sp)
    48c4:	01d12823          	sw	t4,16(sp)
    48c8:	00d12623          	sw	a3,12(sp)
    48cc:	47812423          	sw	s8,1128(sp)
    48d0:	01e12c23          	sw	t5,24(sp)
    48d4:	01f12223          	sw	t6,4(sp)
    48d8:	5a9000ef          	jal	5680 <__divsi3>
    48dc:	80001737          	lui	a4,0x80001
    48e0:	a9070b13          	addi	s6,a4,-1392 # 80000a90 <main+0x7fffb35c>
    48e4:	00ab05b3          	add	a1,s6,a0
    48e8:	0005c383          	lbu	t2,0(a1)
    48ec:	00412f83          	lw	t6,4(sp)
    48f0:	00048513          	mv	a0,s1
    48f4:	06400593          	li	a1,100
    48f8:	be7f8423          	sb	t2,-1048(t6)
    48fc:	609000ef          	jal	5704 <__modsi3>
    4900:	01812f03          	lw	t5,24(sp)
    4904:	00a00593          	li	a1,10
    4908:	00050c13          	mv	s8,a0
    490c:	002f04b3          	add	s1,t5,sp
    4910:	571000ef          	jal	5680 <__divsi3>
    4914:	00ab05b3          	add	a1,s6,a0
    4918:	0005cf83          	lbu	t6,0(a1)
    491c:	000c0513          	mv	a0,s8
    4920:	00a00593          	li	a1,10
    4924:	03f48c23          	sb	t6,56(s1)
    4928:	5dd000ef          	jal	5704 <__modsi3>
    492c:	01412283          	lw	t0,20(sp)
    4930:	01c12f03          	lw	t5,28(sp)
    4934:	02412f83          	lw	t6,36(sp)
    4938:	02012e03          	lw	t3,32(sp)
    493c:	02812303          	lw	t1,40(sp)
    4940:	00812783          	lw	a5,8(sp)
    4944:	00c12683          	lw	a3,12(sp)
    4948:	01012e83          	lw	t4,16(sp)
    494c:	02c12803          	lw	a6,44(sp)
    4950:	46812c03          	lw	s8,1128(sp)
    4954:	00050493          	mv	s1,a0
    4958:	00828893          	addi	a7,t0,8
    495c:	00728613          	addi	a2,t0,7
    4960:	009b0733          	add	a4,s6,s1
    4964:	00074583          	lbu	a1,0(a4)
    4968:	002f8733          	add	a4,t6,sp
    496c:	02b70c23          	sb	a1,56(a4)
    4970:	002ec483          	lbu	s1,2(t4)
    4974:	02e00593          	li	a1,46
    4978:	002f0733          	add	a4,t5,sp
    497c:	02b70c23          	sb	a1,56(a4)
    4980:	72048663          	beqz	s1,50ac <ee_printf+0x112c>
    4984:	06300593          	li	a1,99
    4988:	0695d8e3          	bge	a1,s1,51f8 <ee_printf+0x1278>
    498c:	03010713          	addi	a4,sp,48
    4990:	00f12423          	sw	a5,8(sp)
    4994:	42030793          	addi	a5,t1,1056
    4998:	00e78333          	add	t1,a5,a4
    499c:	06400593          	li	a1,100
    49a0:	00048513          	mv	a0,s1
    49a4:	03012223          	sw	a6,36(sp)
    49a8:	02c12023          	sw	a2,32(sp)
    49ac:	01112e23          	sw	a7,28(sp)
    49b0:	01e12a23          	sw	t5,20(sp)
    49b4:	01d12823          	sw	t4,16(sp)
    49b8:	00d12623          	sw	a3,12(sp)
    49bc:	47812423          	sw	s8,1128(sp)
    49c0:	01c12c23          	sw	t3,24(sp)
    49c4:	00612223          	sw	t1,4(sp)
    49c8:	4b9000ef          	jal	5680 <__divsi3>
    49cc:	80001737          	lui	a4,0x80001
    49d0:	a9070b13          	addi	s6,a4,-1392 # 80000a90 <main+0x7fffb35c>
    49d4:	00ab05b3          	add	a1,s6,a0
    49d8:	0005cf83          	lbu	t6,0(a1)
    49dc:	00412303          	lw	t1,4(sp)
    49e0:	00048513          	mv	a0,s1
    49e4:	06400593          	li	a1,100
    49e8:	bff30423          	sb	t6,-1048(t1)
    49ec:	519000ef          	jal	5704 <__modsi3>
    49f0:	01812e03          	lw	t3,24(sp)
    49f4:	00a00593          	li	a1,10
    49f8:	00050c13          	mv	s8,a0
    49fc:	002e04b3          	add	s1,t3,sp
    4a00:	481000ef          	jal	5680 <__divsi3>
    4a04:	00ab05b3          	add	a1,s6,a0
    4a08:	0005c303          	lbu	t1,0(a1)
    4a0c:	000c0513          	mv	a0,s8
    4a10:	00a00593          	li	a1,10
    4a14:	02648c23          	sb	t1,56(s1)
    4a18:	4ed000ef          	jal	5704 <__modsi3>
    4a1c:	01412f03          	lw	t5,20(sp)
    4a20:	01c12e03          	lw	t3,28(sp)
    4a24:	02012303          	lw	t1,32(sp)
    4a28:	00812783          	lw	a5,8(sp)
    4a2c:	00c12683          	lw	a3,12(sp)
    4a30:	01012e83          	lw	t4,16(sp)
    4a34:	02412803          	lw	a6,36(sp)
    4a38:	46812c03          	lw	s8,1128(sp)
    4a3c:	00050493          	mv	s1,a0
    4a40:	006f0893          	addi	a7,t5,6
    4a44:	005f0613          	addi	a2,t5,5
    4a48:	009b0733          	add	a4,s6,s1
    4a4c:	00074703          	lbu	a4,0(a4)
    4a50:	00230333          	add	t1,t1,sp
    4a54:	02e30c23          	sb	a4,56(t1)
    4a58:	003ec483          	lbu	s1,3(t4)
    4a5c:	02e00593          	li	a1,46
    4a60:	002e0733          	add	a4,t3,sp
    4a64:	02b70c23          	sb	a1,56(a4)
    4a68:	62048a63          	beqz	s1,509c <ee_printf+0x111c>
    4a6c:	06300713          	li	a4,99
    4a70:	70975663          	bge	a4,s1,517c <ee_printf+0x11fc>
    4a74:	03010713          	addi	a4,sp,48
    4a78:	00f12623          	sw	a5,12(sp)
    4a7c:	42060793          	addi	a5,a2,1056
    4a80:	00e78633          	add	a2,a5,a4
    4a84:	06400593          	li	a1,100
    4a88:	00048513          	mv	a0,s1
    4a8c:	01012c23          	sw	a6,24(sp)
    4a90:	00d12823          	sw	a3,16(sp)
    4a94:	47812423          	sw	s8,1128(sp)
    4a98:	01112a23          	sw	a7,20(sp)
    4a9c:	01c12423          	sw	t3,8(sp)
    4aa0:	00c12223          	sw	a2,4(sp)
    4aa4:	3dd000ef          	jal	5680 <__divsi3>
    4aa8:	80001737          	lui	a4,0x80001
    4aac:	a9070b13          	addi	s6,a4,-1392 # 80000a90 <main+0x7fffb35c>
    4ab0:	00ab05b3          	add	a1,s6,a0
    4ab4:	00412603          	lw	a2,4(sp)
    4ab8:	0005c583          	lbu	a1,0(a1)
    4abc:	00048513          	mv	a0,s1
    4ac0:	beb60423          	sb	a1,-1048(a2)
    4ac4:	06400593          	li	a1,100
    4ac8:	43d000ef          	jal	5704 <__modsi3>
    4acc:	00812e03          	lw	t3,8(sp)
    4ad0:	01412883          	lw	a7,20(sp)
    4ad4:	00a00593          	li	a1,10
    4ad8:	003e0613          	addi	a2,t3,3
    4adc:	002884b3          	add	s1,a7,sp
    4ae0:	00050c13          	mv	s8,a0
    4ae4:	00c12223          	sw	a2,4(sp)
    4ae8:	399000ef          	jal	5680 <__divsi3>
    4aec:	00ab05b3          	add	a1,s6,a0
    4af0:	0005c303          	lbu	t1,0(a1)
    4af4:	000c0513          	mv	a0,s8
    4af8:	00a00593          	li	a1,10
    4afc:	02648c23          	sb	t1,56(s1)
    4b00:	405000ef          	jal	5704 <__modsi3>
    4b04:	00812e03          	lw	t3,8(sp)
    4b08:	00412603          	lw	a2,4(sp)
    4b0c:	00c12783          	lw	a5,12(sp)
    4b10:	01012683          	lw	a3,16(sp)
    4b14:	01812803          	lw	a6,24(sp)
    4b18:	46812c03          	lw	s8,1128(sp)
    4b1c:	004e0893          	addi	a7,t3,4
    4b20:	00050493          	mv	s1,a0
    4b24:	009b04b3          	add	s1,s6,s1
    4b28:	0004c703          	lbu	a4,0(s1)
    4b2c:	00260633          	add	a2,a2,sp
    4b30:	02e60c23          	sb	a4,56(a2)
    4b34:	0107f793          	andi	a5,a5,16
    4b38:	0e079063          	bnez	a5,4c18 <ee_printf+0xc98>
    4b3c:	fff68e13          	addi	t3,a3,-1
    4b40:	28d8d8e3          	bge	a7,a3,55d0 <ee_printf+0x1650>
    4b44:	411685b3          	sub	a1,a3,a7
    4b48:	fff58713          	addi	a4,a1,-1
    4b4c:	00500793          	li	a5,5
    4b50:	00080313          	mv	t1,a6
    4b54:	06e7fe63          	bgeu	a5,a4,4bd0 <ee_printf+0xc50>
    4b58:	41000733          	neg	a4,a6
    4b5c:	00377793          	andi	a5,a4,3
    4b60:	00080513          	mv	a0,a6
    4b64:	02078e63          	beqz	a5,4ba0 <ee_printf+0xc20>
    4b68:	02000613          	li	a2,32
    4b6c:	00277713          	andi	a4,a4,2
    4b70:	00c80023          	sb	a2,0(a6)
    4b74:	ffe68e13          	addi	t3,a3,-2
    4b78:	00180513          	addi	a0,a6,1
    4b7c:	02070263          	beqz	a4,4ba0 <ee_printf+0xc20>
    4b80:	00c800a3          	sb	a2,1(a6)
    4b84:	00300713          	li	a4,3
    4b88:	ffd68e13          	addi	t3,a3,-3
    4b8c:	00280513          	addi	a0,a6,2
    4b90:	00e79863          	bne	a5,a4,4ba0 <ee_printf+0xc20>
    4b94:	00c80123          	sb	a2,2(a6)
    4b98:	ffc68e13          	addi	t3,a3,-4
    4b9c:	00380513          	addi	a0,a6,3
    4ba0:	40f58633          	sub	a2,a1,a5
    4ba4:	20202737          	lui	a4,0x20202
    4ba8:	00f807b3          	add	a5,a6,a5
    4bac:	ffc67813          	andi	a6,a2,-4
    4bb0:	010786b3          	add	a3,a5,a6
    4bb4:	02070713          	addi	a4,a4,32 # 20202020 <main+0x201fc8ec>
    4bb8:	00e7a023          	sw	a4,0(a5)
    4bbc:	00478793          	addi	a5,a5,4
    4bc0:	fed79ce3          	bne	a5,a3,4bb8 <ee_printf+0xc38>
    4bc4:	05060663          	beq	a2,a6,4c10 <ee_printf+0xc90>
    4bc8:	410e0e33          	sub	t3,t3,a6
    4bcc:	01050833          	add	a6,a0,a6
    4bd0:	02000793          	li	a5,32
    4bd4:	00f80023          	sb	a5,0(a6)
    4bd8:	03c8dc63          	bge	a7,t3,4c10 <ee_printf+0xc90>
    4bdc:	00f800a3          	sb	a5,1(a6)
    4be0:	fffe0713          	addi	a4,t3,-1
    4be4:	02e8d663          	bge	a7,a4,4c10 <ee_printf+0xc90>
    4be8:	00f80123          	sb	a5,2(a6)
    4bec:	ffee0713          	addi	a4,t3,-2
    4bf0:	02e8d063          	bge	a7,a4,4c10 <ee_printf+0xc90>
    4bf4:	00f801a3          	sb	a5,3(a6)
    4bf8:	ffde0713          	addi	a4,t3,-3
    4bfc:	00e8da63          	bge	a7,a4,4c10 <ee_printf+0xc90>
    4c00:	00f80223          	sb	a5,4(a6)
    4c04:	ffce0e13          	addi	t3,t3,-4
    4c08:	01c8d463          	bge	a7,t3,4c10 <ee_printf+0xc90>
    4c0c:	00f802a3          	sb	a5,5(a6)
    4c10:	00658833          	add	a6,a1,t1
    4c14:	fff88693          	addi	a3,a7,-1
    4c18:	00387793          	andi	a5,a6,3
    4c1c:	04079ee3          	bnez	a5,5478 <ee_printf+0x14f8>
    4c20:	03812603          	lw	a2,56(sp)
    4c24:	0028d793          	srli	a5,a7,0x2
    4c28:	00100713          	li	a4,1
    4c2c:	00c82023          	sw	a2,0(a6)
    4c30:	4ee78a63          	beq	a5,a4,5124 <ee_printf+0x11a4>
    4c34:	03c12603          	lw	a2,60(sp)
    4c38:	00300713          	li	a4,3
    4c3c:	00c82223          	sw	a2,4(a6)
    4c40:	00e79663          	bne	a5,a4,4c4c <ee_printf+0xccc>
    4c44:	04012783          	lw	a5,64(sp)
    4c48:	00f82423          	sw	a5,8(a6)
    4c4c:	0038f793          	andi	a5,a7,3
    4c50:	02078063          	beqz	a5,4c70 <ee_printf+0xcf0>
    4c54:	ffc8f793          	andi	a5,a7,-4
    4c58:	00278733          	add	a4,a5,sp
    4c5c:	03874583          	lbu	a1,56(a4)
    4c60:	00f80633          	add	a2,a6,a5
    4c64:	00178713          	addi	a4,a5,1
    4c68:	00b60023          	sb	a1,0(a2)
    4c6c:	111740e3          	blt	a4,a7,556c <ee_printf+0x15ec>
    4c70:	00080313          	mv	t1,a6
    4c74:	01180833          	add	a6,a6,a7
    4c78:	00080513          	mv	a0,a6
    4c7c:	0cd8d063          	bge	a7,a3,4d3c <ee_printf+0xdbc>
    4c80:	41168733          	sub	a4,a3,a7
    4c84:	fff70593          	addi	a1,a4,-1
    4c88:	00500613          	li	a2,5
    4c8c:	fff68e13          	addi	t3,a3,-1
    4c90:	06b67463          	bgeu	a2,a1,4cf8 <ee_printf+0xd78>
    4c94:	41000633          	neg	a2,a6
    4c98:	00367793          	andi	a5,a2,3
    4c9c:	02078663          	beqz	a5,4cc8 <ee_printf+0xd48>
    4ca0:	02000593          	li	a1,32
    4ca4:	00267613          	andi	a2,a2,2
    4ca8:	00b80023          	sb	a1,0(a6)
    4cac:	70060063          	beqz	a2,53ac <ee_printf+0x142c>
    4cb0:	00b800a3          	sb	a1,1(a6)
    4cb4:	00300613          	li	a2,3
    4cb8:	0ac794e3          	bne	a5,a2,5560 <ee_printf+0x15e0>
    4cbc:	00b80123          	sb	a1,2(a6)
    4cc0:	ffc68e13          	addi	t3,a3,-4
    4cc4:	00380813          	addi	a6,a6,3
    4cc8:	40f705b3          	sub	a1,a4,a5
    4ccc:	00a787b3          	add	a5,a5,a0
    4cd0:	20202737          	lui	a4,0x20202
    4cd4:	ffc5f513          	andi	a0,a1,-4
    4cd8:	00a78633          	add	a2,a5,a0
    4cdc:	02070713          	addi	a4,a4,32 # 20202020 <main+0x201fc8ec>
    4ce0:	00e7a023          	sw	a4,0(a5)
    4ce4:	00478793          	addi	a5,a5,4
    4ce8:	fec79ce3          	bne	a5,a2,4ce0 <ee_printf+0xd60>
    4cec:	04a58663          	beq	a1,a0,4d38 <ee_printf+0xdb8>
    4cf0:	40ae0e33          	sub	t3,t3,a0
    4cf4:	00a80833          	add	a6,a6,a0
    4cf8:	02000713          	li	a4,32
    4cfc:	00e80023          	sb	a4,0(a6)
    4d00:	03c8dc63          	bge	a7,t3,4d38 <ee_printf+0xdb8>
    4d04:	00e800a3          	sb	a4,1(a6)
    4d08:	fffe0613          	addi	a2,t3,-1
    4d0c:	02c8d663          	bge	a7,a2,4d38 <ee_printf+0xdb8>
    4d10:	00e80123          	sb	a4,2(a6)
    4d14:	ffee0793          	addi	a5,t3,-2
    4d18:	02f8d063          	bge	a7,a5,4d38 <ee_printf+0xdb8>
    4d1c:	00e801a3          	sb	a4,3(a6)
    4d20:	ffde0793          	addi	a5,t3,-3
    4d24:	00f8da63          	bge	a7,a5,4d38 <ee_printf+0xdb8>
    4d28:	00e80223          	sb	a4,4(a6)
    4d2c:	ffce0793          	addi	a5,t3,-4
    4d30:	00f8d463          	bge	a7,a5,4d38 <ee_printf+0xdb8>
    4d34:	00e802a3          	sb	a4,5(a6)
    4d38:	00d30833          	add	a6,t1,a3
    4d3c:	001bc783          	lbu	a5,1(s7)
    4d40:	000d0b13          	mv	s6,s10
    4d44:	001b8513          	addi	a0,s7,1
    4d48:	46012d03          	lw	s10,1120(sp)
    4d4c:	aa079663          	bnez	a5,3ff8 <ee_printf+0x78>
    4d50:	ac0ff06f          	j	4010 <ee_printf+0x90>
    4d54:	47a12023          	sw	s10,1120(sp)
    4d58:	06c00713          	li	a4,108
    4d5c:	0407e793          	ori	a5,a5,64
    4d60:	a4e89ee3          	bne	a7,a4,47bc <ee_printf+0x83c>
    4d64:	47812423          	sw	s8,1128(sp)
    4d68:	80001737          	lui	a4,0x80001
    4d6c:	000b2603          	lw	a2,0(s6)
    4d70:	ab870713          	addi	a4,a4,-1352 # 80000ab8 <main+0x7fffb384>
    4d74:	004b0b13          	addi	s6,s6,4
    4d78:	00064e03          	lbu	t3,0(a2)
    4d7c:	00164883          	lbu	a7,1(a2)
    4d80:	00464383          	lbu	t2,4(a2)
    4d84:	004e5293          	srli	t0,t3,0x4
    4d88:	00264503          	lbu	a0,2(a2)
    4d8c:	00364583          	lbu	a1,3(a2)
    4d90:	005702b3          	add	t0,a4,t0
    4d94:	00fe7e13          	andi	t3,t3,15
    4d98:	00564b83          	lbu	s7,5(a2)
    4d9c:	0002c283          	lbu	t0,0(t0)
    4da0:	01c70e33          	add	t3,a4,t3
    4da4:	000e4e03          	lbu	t3,0(t3)
    4da8:	0048df93          	srli	t6,a7,0x4
    4dac:	00f3f613          	andi	a2,t2,15
    4db0:	00f8f893          	andi	a7,a7,15
    4db4:	011708b3          	add	a7,a4,a7
    4db8:	00c70633          	add	a2,a4,a2
    4dbc:	00455f13          	srli	t5,a0,0x4
    4dc0:	0045de93          	srli	t4,a1,0x4
    4dc4:	0043d313          	srli	t1,t2,0x4
    4dc8:	00f57513          	andi	a0,a0,15
    4dcc:	00f5f593          	andi	a1,a1,15
    4dd0:	01f70fb3          	add	t6,a4,t6
    4dd4:	01e70f33          	add	t5,a4,t5
    4dd8:	00a70533          	add	a0,a4,a0
    4ddc:	01d70eb3          	add	t4,a4,t4
    4de0:	00b705b3          	add	a1,a4,a1
    4de4:	00670333          	add	t1,a4,t1
    4de8:	00028c13          	mv	s8,t0
    4dec:	0008c283          	lbu	t0,0(a7)
    4df0:	00064883          	lbu	a7,0(a2)
    4df4:	004bd613          	srli	a2,s7,0x4
    4df8:	000fc383          	lbu	t2,0(t6)
    4dfc:	00c70633          	add	a2,a4,a2
    4e00:	000f4f83          	lbu	t6,0(t5)
    4e04:	000ece83          	lbu	t4,0(t4)
    4e08:	00054f03          	lbu	t5,0(a0)
    4e0c:	00034303          	lbu	t1,0(t1)
    4e10:	000e0d13          	mv	s10,t3
    4e14:	0005ce03          	lbu	t3,0(a1)
    4e18:	00064503          	lbu	a0,0(a2)
    4e1c:	00fbfb93          	andi	s7,s7,15
    4e20:	03a00613          	li	a2,58
    4e24:	03810c23          	sb	s8,56(sp)
    4e28:	03a10ca3          	sb	s10,57(sp)
    4e2c:	02710da3          	sb	t2,59(sp)
    4e30:	02510e23          	sb	t0,60(sp)
    4e34:	03f10f23          	sb	t6,62(sp)
    4e38:	03e10fa3          	sb	t5,63(sp)
    4e3c:	05d100a3          	sb	t4,65(sp)
    4e40:	05c10123          	sb	t3,66(sp)
    4e44:	04610223          	sb	t1,68(sp)
    4e48:	051102a3          	sb	a7,69(sp)
    4e4c:	01770733          	add	a4,a4,s7
    4e50:	02c10d23          	sb	a2,58(sp)
    4e54:	02c10ea3          	sb	a2,61(sp)
    4e58:	04c10023          	sb	a2,64(sp)
    4e5c:	04c101a3          	sb	a2,67(sp)
    4e60:	04c10323          	sb	a2,70(sp)
    4e64:	0107f793          	andi	a5,a5,16
    4e68:	04a103a3          	sb	a0,71(sp)
    4e6c:	00074b83          	lbu	s7,0(a4)
    4e70:	0e079a63          	bnez	a5,4f64 <ee_printf+0xfe4>
    4e74:	01100793          	li	a5,17
    4e78:	fff68593          	addi	a1,a3,-1
    4e7c:	7ad7d663          	bge	a5,a3,5628 <ee_printf+0x16a8>
    4e80:	fee68793          	addi	a5,a3,-18
    4e84:	00500713          	li	a4,5
    4e88:	01012423          	sw	a6,8(sp)
    4e8c:	08f77263          	bgeu	a4,a5,4f10 <ee_printf+0xf90>
    4e90:	41000733          	neg	a4,a6
    4e94:	45b12e23          	sw	s11,1116(sp)
    4e98:	00377793          	andi	a5,a4,3
    4e9c:	01012223          	sw	a6,4(sp)
    4ea0:	02078863          	beqz	a5,4ed0 <ee_printf+0xf50>
    4ea4:	02000613          	li	a2,32
    4ea8:	00277713          	andi	a4,a4,2
    4eac:	00c80023          	sb	a2,0(a6)
    4eb0:	72070463          	beqz	a4,55d8 <ee_printf+0x1658>
    4eb4:	00c800a3          	sb	a2,1(a6)
    4eb8:	00300713          	li	a4,3
    4ebc:	74e79e63          	bne	a5,a4,5618 <ee_printf+0x1698>
    4ec0:	00380713          	addi	a4,a6,3
    4ec4:	00c80123          	sb	a2,2(a6)
    4ec8:	00e12223          	sw	a4,4(sp)
    4ecc:	ffc68593          	addi	a1,a3,-4
    4ed0:	40f68733          	sub	a4,a3,a5
    4ed4:	fef70713          	addi	a4,a4,-17
    4ed8:	00f807b3          	add	a5,a6,a5
    4edc:	00070d93          	mv	s11,a4
    4ee0:	ffc77813          	andi	a6,a4,-4
    4ee4:	20202737          	lui	a4,0x20202
    4ee8:	00f80633          	add	a2,a6,a5
    4eec:	02070713          	addi	a4,a4,32 # 20202020 <main+0x201fc8ec>
    4ef0:	00e7a023          	sw	a4,0(a5)
    4ef4:	00478793          	addi	a5,a5,4
    4ef8:	fef61ce3          	bne	a2,a5,4ef0 <ee_printf+0xf70>
    4efc:	550d8663          	beq	s11,a6,5448 <ee_printf+0x14c8>
    4f00:	00412783          	lw	a5,4(sp)
    4f04:	45c12d83          	lw	s11,1116(sp)
    4f08:	410585b3          	sub	a1,a1,a6
    4f0c:	01078833          	add	a6,a5,a6
    4f10:	02000793          	li	a5,32
    4f14:	00f80023          	sb	a5,0(a6)
    4f18:	01100713          	li	a4,17
    4f1c:	02b75c63          	bge	a4,a1,4f54 <ee_printf+0xfd4>
    4f20:	00f800a3          	sb	a5,1(a6)
    4f24:	01200713          	li	a4,18
    4f28:	02e58663          	beq	a1,a4,4f54 <ee_printf+0xfd4>
    4f2c:	00f80123          	sb	a5,2(a6)
    4f30:	01300713          	li	a4,19
    4f34:	02e58063          	beq	a1,a4,4f54 <ee_printf+0xfd4>
    4f38:	00f801a3          	sb	a5,3(a6)
    4f3c:	01400713          	li	a4,20
    4f40:	00e58a63          	beq	a1,a4,4f54 <ee_printf+0xfd4>
    4f44:	00f80223          	sb	a5,4(a6)
    4f48:	01500713          	li	a4,21
    4f4c:	00e58463          	beq	a1,a4,4f54 <ee_printf+0xfd4>
    4f50:	00f802a3          	sb	a5,5(a6)
    4f54:	00812783          	lw	a5,8(sp)
    4f58:	fef78813          	addi	a6,a5,-17
    4f5c:	00d80833          	add	a6,a6,a3
    4f60:	01000693          	li	a3,16
    4f64:	00387793          	andi	a5,a6,3
    4f68:	60079663          	bnez	a5,5574 <ee_printf+0x15f4>
    4f6c:	03812783          	lw	a5,56(sp)
    4f70:	03c12603          	lw	a2,60(sp)
    4f74:	04012703          	lw	a4,64(sp)
    4f78:	00f82023          	sw	a5,0(a6)
    4f7c:	04412783          	lw	a5,68(sp)
    4f80:	00c82223          	sw	a2,4(a6)
    4f84:	00e82423          	sw	a4,8(a6)
    4f88:	00f82623          	sw	a5,12(a6)
    4f8c:	01100793          	li	a5,17
    4f90:	01780823          	sb	s7,16(a6)
    4f94:	00f80533          	add	a0,a6,a5
    4f98:	62d7d863          	bge	a5,a3,55c8 <ee_printf+0x1648>
    4f9c:	fee68793          	addi	a5,a3,-18
    4fa0:	00500713          	li	a4,5
    4fa4:	fff68893          	addi	a7,a3,-1
    4fa8:	fef68313          	addi	t1,a3,-17
    4fac:	00050e13          	mv	t3,a0
    4fb0:	06f77e63          	bgeu	a4,a5,502c <ee_printf+0x10ac>
    4fb4:	40a00733          	neg	a4,a0
    4fb8:	00377793          	andi	a5,a4,3
    4fbc:	02078e63          	beqz	a5,4ff8 <ee_printf+0x1078>
    4fc0:	02000613          	li	a2,32
    4fc4:	00277713          	andi	a4,a4,2
    4fc8:	00c808a3          	sb	a2,17(a6)
    4fcc:	ffe68893          	addi	a7,a3,-2
    4fd0:	01280513          	addi	a0,a6,18
    4fd4:	02070263          	beqz	a4,4ff8 <ee_printf+0x1078>
    4fd8:	00c80923          	sb	a2,18(a6)
    4fdc:	00300713          	li	a4,3
    4fe0:	ffd68893          	addi	a7,a3,-3
    4fe4:	01380513          	addi	a0,a6,19
    4fe8:	00e79863          	bne	a5,a4,4ff8 <ee_printf+0x1078>
    4fec:	00c809a3          	sb	a2,19(a6)
    4ff0:	ffc68893          	addi	a7,a3,-4
    4ff4:	01480513          	addi	a0,a6,20
    4ff8:	40f305b3          	sub	a1,t1,a5
    4ffc:	01178793          	addi	a5,a5,17
    5000:	00f807b3          	add	a5,a6,a5
    5004:	ffc5f613          	andi	a2,a1,-4
    5008:	20202737          	lui	a4,0x20202
    500c:	00f606b3          	add	a3,a2,a5
    5010:	02070713          	addi	a4,a4,32 # 20202020 <main+0x201fc8ec>
    5014:	00e7a023          	sw	a4,0(a5)
    5018:	00478793          	addi	a5,a5,4
    501c:	fed79ce3          	bne	a5,a3,5014 <ee_printf+0x1094>
    5020:	04c58863          	beq	a1,a2,5070 <ee_printf+0x10f0>
    5024:	40c888b3          	sub	a7,a7,a2
    5028:	00c50533          	add	a0,a0,a2
    502c:	02000793          	li	a5,32
    5030:	00f50023          	sb	a5,0(a0)
    5034:	01100713          	li	a4,17
    5038:	03175c63          	bge	a4,a7,5070 <ee_printf+0x10f0>
    503c:	00f500a3          	sb	a5,1(a0)
    5040:	01200713          	li	a4,18
    5044:	02e88663          	beq	a7,a4,5070 <ee_printf+0x10f0>
    5048:	00f50123          	sb	a5,2(a0)
    504c:	01300713          	li	a4,19
    5050:	02e88063          	beq	a7,a4,5070 <ee_printf+0x10f0>
    5054:	00f501a3          	sb	a5,3(a0)
    5058:	01400713          	li	a4,20
    505c:	00e88a63          	beq	a7,a4,5070 <ee_printf+0x10f0>
    5060:	00f50223          	sb	a5,4(a0)
    5064:	01500713          	li	a4,21
    5068:	00e88463          	beq	a7,a4,5070 <ee_printf+0x10f0>
    506c:	00f502a3          	sb	a5,5(a0)
    5070:	006e0833          	add	a6,t3,t1
    5074:	0024c783          	lbu	a5,2(s1)
    5078:	46812c03          	lw	s8,1128(sp)
    507c:	46012d03          	lw	s10,1120(sp)
    5080:	00248513          	addi	a0,s1,2
    5084:	00078463          	beqz	a5,508c <ee_printf+0x110c>
    5088:	f71fe06f          	j	3ff8 <ee_printf+0x78>
    508c:	f85fe06f          	j	4010 <ee_printf+0x90>
    5090:	00048b93          	mv	s7,s1
    5094:	00800613          	li	a2,8
    5098:	980ff06f          	j	4218 <ee_printf+0x298>
    509c:	00260633          	add	a2,a2,sp
    50a0:	03000713          	li	a4,48
    50a4:	02e60c23          	sb	a4,56(a2)
    50a8:	a8dff06f          	j	4b34 <ee_printf+0xbb4>
    50ac:	00230333          	add	t1,t1,sp
    50b0:	03000713          	li	a4,48
    50b4:	02e30c23          	sb	a4,56(t1)
    50b8:	9a1ff06f          	j	4a58 <ee_printf+0xad8>
    50bc:	002f8733          	add	a4,t6,sp
    50c0:	03000593          	li	a1,48
    50c4:	02b70c23          	sb	a1,56(a4)
    50c8:	8a9ff06f          	j	4970 <ee_printf+0x9f0>
    50cc:	03000713          	li	a4,48
    50d0:	02e10c23          	sb	a4,56(sp)
    50d4:	00700893          	li	a7,7
    50d8:	00600613          	li	a2,6
    50dc:	00500e13          	li	t3,5
    50e0:	00400313          	li	t1,4
    50e4:	00300f13          	li	t5,3
    50e8:	00200f93          	li	t6,2
    50ec:	00100293          	li	t0,1
    50f0:	f88ff06f          	j	4878 <ee_printf+0x8f8>
    50f4:	05010b13          	addi	s6,sp,80
    50f8:	000b0813          	mv	a6,s6
    50fc:	00080023          	sb	zero,0(a6)
    5100:	05014703          	lbu	a4,80(sp)
    5104:	00070463          	beqz	a4,510c <ee_printf+0x118c>
    5108:	f35fe06f          	j	403c <ee_printf+0xbc>
    510c:	48c12083          	lw	ra,1164(sp)
    5110:	48412483          	lw	s1,1156(sp)
    5114:	47012b03          	lw	s6,1136(sp)
    5118:	00000513          	li	a0,0
    511c:	4b010113          	addi	sp,sp,1200
    5120:	00008067          	ret
    5124:	03c14783          	lbu	a5,60(sp)
    5128:	00480613          	addi	a2,a6,4
    512c:	00580593          	addi	a1,a6,5
    5130:	00f80223          	sb	a5,4(a6)
    5134:	00500713          	li	a4,5
    5138:	00400793          	li	a5,4
    513c:	03010513          	addi	a0,sp,48
    5140:	00a70733          	add	a4,a4,a0
    5144:	00874703          	lbu	a4,8(a4)
    5148:	00278793          	addi	a5,a5,2
    514c:	00e58023          	sb	a4,0(a1)
    5150:	b317d0e3          	bge	a5,a7,4c70 <ee_printf+0xcf0>
    5154:	00a787b3          	add	a5,a5,a0
    5158:	0087c783          	lbu	a5,8(a5)
    515c:	00f60123          	sb	a5,2(a2)
    5160:	b11ff06f          	j	4c70 <ee_printf+0xcf0>
    5164:	47812423          	sw	s8,1128(sp)
    5168:	80001737          	lui	a4,0x80001
    516c:	000b2603          	lw	a2,0(s6)
    5170:	a9070713          	addi	a4,a4,-1392 # 80000a90 <main+0x7fffb35c>
    5174:	004b0b13          	addi	s6,s6,4
    5178:	c01ff06f          	j	4d78 <ee_printf+0xdf8>
    517c:	00900713          	li	a4,9
    5180:	24975863          	bge	a4,s1,53d0 <ee_printf+0x1450>
    5184:	03010713          	addi	a4,sp,48
    5188:	00f12423          	sw	a5,8(sp)
    518c:	42060793          	addi	a5,a2,1056
    5190:	00e78633          	add	a2,a5,a4
    5194:	00a00593          	li	a1,10
    5198:	00048513          	mv	a0,s1
    519c:	01012c23          	sw	a6,24(sp)
    51a0:	01112a23          	sw	a7,20(sp)
    51a4:	01c12823          	sw	t3,16(sp)
    51a8:	00d12623          	sw	a3,12(sp)
    51ac:	00c12223          	sw	a2,4(sp)
    51b0:	4d0000ef          	jal	5680 <__divsi3>
    51b4:	80001737          	lui	a4,0x80001
    51b8:	a9070b13          	addi	s6,a4,-1392 # 80000a90 <main+0x7fffb35c>
    51bc:	00ab05b3          	add	a1,s6,a0
    51c0:	0005c303          	lbu	t1,0(a1)
    51c4:	00412603          	lw	a2,4(sp)
    51c8:	00048513          	mv	a0,s1
    51cc:	00a00593          	li	a1,10
    51d0:	be660423          	sb	t1,-1048(a2)
    51d4:	530000ef          	jal	5704 <__modsi3>
    51d8:	01012e03          	lw	t3,16(sp)
    51dc:	01412603          	lw	a2,20(sp)
    51e0:	00812783          	lw	a5,8(sp)
    51e4:	00c12683          	lw	a3,12(sp)
    51e8:	01812803          	lw	a6,24(sp)
    51ec:	00050493          	mv	s1,a0
    51f0:	003e0893          	addi	a7,t3,3
    51f4:	931ff06f          	j	4b24 <ee_printf+0xba4>
    51f8:	00900713          	li	a4,9
    51fc:	1c975463          	bge	a4,s1,53c4 <ee_printf+0x1444>
    5200:	03010713          	addi	a4,sp,48
    5204:	00f12423          	sw	a5,8(sp)
    5208:	42030793          	addi	a5,t1,1056
    520c:	00e78333          	add	t1,a5,a4
    5210:	00a00593          	li	a1,10
    5214:	00048513          	mv	a0,s1
    5218:	03012223          	sw	a6,36(sp)
    521c:	02c12023          	sw	a2,32(sp)
    5220:	01112e23          	sw	a7,28(sp)
    5224:	01c12c23          	sw	t3,24(sp)
    5228:	01e12a23          	sw	t5,20(sp)
    522c:	01d12823          	sw	t4,16(sp)
    5230:	00d12623          	sw	a3,12(sp)
    5234:	00612223          	sw	t1,4(sp)
    5238:	448000ef          	jal	5680 <__divsi3>
    523c:	80001737          	lui	a4,0x80001
    5240:	a9070b13          	addi	s6,a4,-1392 # 80000a90 <main+0x7fffb35c>
    5244:	00ab05b3          	add	a1,s6,a0
    5248:	0005cf83          	lbu	t6,0(a1)
    524c:	00412303          	lw	t1,4(sp)
    5250:	00048513          	mv	a0,s1
    5254:	00a00593          	li	a1,10
    5258:	bff30423          	sb	t6,-1048(t1)
    525c:	4a8000ef          	jal	5704 <__modsi3>
    5260:	01412f03          	lw	t5,20(sp)
    5264:	01812303          	lw	t1,24(sp)
    5268:	02012e03          	lw	t3,32(sp)
    526c:	01c12603          	lw	a2,28(sp)
    5270:	00812783          	lw	a5,8(sp)
    5274:	00c12683          	lw	a3,12(sp)
    5278:	01012e83          	lw	t4,16(sp)
    527c:	02412803          	lw	a6,36(sp)
    5280:	00050493          	mv	s1,a0
    5284:	005f0893          	addi	a7,t5,5
    5288:	fc0ff06f          	j	4a48 <ee_printf+0xac8>
    528c:	00900713          	li	a4,9
    5290:	16975c63          	bge	a4,s1,5408 <ee_printf+0x1488>
    5294:	03010713          	addi	a4,sp,48
    5298:	00f12423          	sw	a5,8(sp)
    529c:	420f8793          	addi	a5,t6,1056
    52a0:	00e78fb3          	add	t6,a5,a4
    52a4:	00a00593          	li	a1,10
    52a8:	00048513          	mv	a0,s1
    52ac:	03012623          	sw	a6,44(sp)
    52b0:	02c12423          	sw	a2,40(sp)
    52b4:	02612223          	sw	t1,36(sp)
    52b8:	03112023          	sw	a7,32(sp)
    52bc:	01c12e23          	sw	t3,28(sp)
    52c0:	01e12c23          	sw	t5,24(sp)
    52c4:	00512a23          	sw	t0,20(sp)
    52c8:	01d12823          	sw	t4,16(sp)
    52cc:	00d12623          	sw	a3,12(sp)
    52d0:	01f12223          	sw	t6,4(sp)
    52d4:	3ac000ef          	jal	5680 <__divsi3>
    52d8:	80001737          	lui	a4,0x80001
    52dc:	a9070b13          	addi	s6,a4,-1392 # 80000a90 <main+0x7fffb35c>
    52e0:	00ab05b3          	add	a1,s6,a0
    52e4:	0005c383          	lbu	t2,0(a1)
    52e8:	00412f83          	lw	t6,4(sp)
    52ec:	00048513          	mv	a0,s1
    52f0:	00a00593          	li	a1,10
    52f4:	be7f8423          	sb	t2,-1048(t6)
    52f8:	40c000ef          	jal	5704 <__modsi3>
    52fc:	01412283          	lw	t0,20(sp)
    5300:	01812f83          	lw	t6,24(sp)
    5304:	02412f03          	lw	t5,36(sp)
    5308:	01c12303          	lw	t1,28(sp)
    530c:	02812e03          	lw	t3,40(sp)
    5310:	02012603          	lw	a2,32(sp)
    5314:	00812783          	lw	a5,8(sp)
    5318:	00c12683          	lw	a3,12(sp)
    531c:	01012e83          	lw	t4,16(sp)
    5320:	02c12803          	lw	a6,44(sp)
    5324:	00050493          	mv	s1,a0
    5328:	00728893          	addi	a7,t0,7
    532c:	e34ff06f          	j	4960 <ee_printf+0x9e0>
    5330:	00900713          	li	a4,9
    5334:	0a975463          	bge	a4,s1,53dc <ee_printf+0x145c>
    5338:	00a00593          	li	a1,10
    533c:	00048513          	mv	a0,s1
    5340:	01012823          	sw	a6,16(sp)
    5344:	01d12623          	sw	t4,12(sp)
    5348:	00d12423          	sw	a3,8(sp)
    534c:	00f12223          	sw	a5,4(sp)
    5350:	330000ef          	jal	5680 <__divsi3>
    5354:	80001737          	lui	a4,0x80001
    5358:	a9070b13          	addi	s6,a4,-1392 # 80000a90 <main+0x7fffb35c>
    535c:	00ab0633          	add	a2,s6,a0
    5360:	00064603          	lbu	a2,0(a2)
    5364:	00048513          	mv	a0,s1
    5368:	00a00593          	li	a1,10
    536c:	02c10c23          	sb	a2,56(sp)
    5370:	394000ef          	jal	5704 <__modsi3>
    5374:	00412783          	lw	a5,4(sp)
    5378:	00812683          	lw	a3,8(sp)
    537c:	00c12e83          	lw	t4,12(sp)
    5380:	01012803          	lw	a6,16(sp)
    5384:	00050493          	mv	s1,a0
    5388:	00800893          	li	a7,8
    538c:	00700613          	li	a2,7
    5390:	00600e13          	li	t3,6
    5394:	00500313          	li	t1,5
    5398:	00400f13          	li	t5,4
    539c:	00300f93          	li	t6,3
    53a0:	00200293          	li	t0,2
    53a4:	00100593          	li	a1,1
    53a8:	cc0ff06f          	j	4868 <ee_printf+0x8e8>
    53ac:	00180813          	addi	a6,a6,1
    53b0:	ffe68e13          	addi	t3,a3,-2
    53b4:	915ff06f          	j	4cc8 <ee_printf+0xd48>
    53b8:	0027e793          	ori	a5,a5,2
    53bc:	00048b93          	mv	s7,s1
    53c0:	be0ff06f          	j	47a0 <ee_printf+0x820>
    53c4:	80001737          	lui	a4,0x80001
    53c8:	a9070b13          	addi	s6,a4,-1392 # 80000a90 <main+0x7fffb35c>
    53cc:	e7cff06f          	j	4a48 <ee_printf+0xac8>
    53d0:	80001737          	lui	a4,0x80001
    53d4:	a9070b13          	addi	s6,a4,-1392 # 80000a90 <main+0x7fffb35c>
    53d8:	f4cff06f          	j	4b24 <ee_printf+0xba4>
    53dc:	80001737          	lui	a4,0x80001
    53e0:	a9070b13          	addi	s6,a4,-1392 # 80000a90 <main+0x7fffb35c>
    53e4:	00700893          	li	a7,7
    53e8:	00600613          	li	a2,6
    53ec:	00500e13          	li	t3,5
    53f0:	00400313          	li	t1,4
    53f4:	00300f13          	li	t5,3
    53f8:	00200f93          	li	t6,2
    53fc:	00100293          	li	t0,1
    5400:	00000593          	li	a1,0
    5404:	c64ff06f          	j	4868 <ee_printf+0x8e8>
    5408:	80001737          	lui	a4,0x80001
    540c:	a9070b13          	addi	s6,a4,-1392 # 80000a90 <main+0x7fffb35c>
    5410:	d50ff06f          	j	4960 <ee_printf+0x9e0>
    5414:	47a12023          	sw	s10,1120(sp)
    5418:	00048b93          	mv	s7,s1
    541c:	ba0ff06f          	j	47bc <ee_printf+0x83c>
    5420:	0407e793          	ori	a5,a5,64
    5424:	00048b93          	mv	s7,s1
    5428:	01000613          	li	a2,16
    542c:	dedfe06f          	j	4218 <ee_printf+0x298>
    5430:	00048b93          	mv	s7,s1
    5434:	de1fe06f          	j	4214 <ee_printf+0x294>
    5438:	47a12023          	sw	s10,1120(sp)
    543c:	0407e793          	ori	a5,a5,64
    5440:	00048b93          	mv	s7,s1
    5444:	b78ff06f          	j	47bc <ee_printf+0x83c>
    5448:	45c12d83          	lw	s11,1116(sp)
    544c:	b09ff06f          	j	4f54 <ee_printf+0xfd4>
    5450:	000b2783          	lw	a5,0(s6)
    5454:	00180813          	addi	a6,a6,1
    5458:	00088b13          	mv	s6,a7
    545c:	fef80fa3          	sb	a5,-1(a6)
    5460:	0014c783          	lbu	a5,1(s1)
    5464:	00078463          	beqz	a5,546c <ee_printf+0x14ec>
    5468:	b91fe06f          	j	3ff8 <ee_printf+0x78>
    546c:	ba5fe06f          	j	4010 <ee_printf+0x90>
    5470:	00058693          	mv	a3,a1
    5474:	f21fe06f          	j	4394 <ee_printf+0x414>
    5478:	03814783          	lbu	a5,56(sp)
    547c:	03914603          	lbu	a2,57(sp)
    5480:	03a14703          	lbu	a4,58(sp)
    5484:	00f80023          	sb	a5,0(a6)
    5488:	03b14783          	lbu	a5,59(sp)
    548c:	00c800a3          	sb	a2,1(a6)
    5490:	00e80123          	sb	a4,2(a6)
    5494:	03c14603          	lbu	a2,60(sp)
    5498:	03d14703          	lbu	a4,61(sp)
    549c:	00f801a3          	sb	a5,3(a6)
    54a0:	03e14783          	lbu	a5,62(sp)
    54a4:	00c80223          	sb	a2,4(a6)
    54a8:	00e802a3          	sb	a4,5(a6)
    54ac:	00f80323          	sb	a5,6(a6)
    54b0:	00700793          	li	a5,7
    54b4:	faf88e63          	beq	a7,a5,4c70 <ee_printf+0xcf0>
    54b8:	03f14703          	lbu	a4,63(sp)
    54bc:	00800793          	li	a5,8
    54c0:	00e803a3          	sb	a4,7(a6)
    54c4:	faf88663          	beq	a7,a5,4c70 <ee_printf+0xcf0>
    54c8:	04014703          	lbu	a4,64(sp)
    54cc:	00900793          	li	a5,9
    54d0:	00e80423          	sb	a4,8(a6)
    54d4:	f8f88e63          	beq	a7,a5,4c70 <ee_printf+0xcf0>
    54d8:	04114703          	lbu	a4,65(sp)
    54dc:	00a00793          	li	a5,10
    54e0:	00e804a3          	sb	a4,9(a6)
    54e4:	f8f88663          	beq	a7,a5,4c70 <ee_printf+0xcf0>
    54e8:	04214703          	lbu	a4,66(sp)
    54ec:	00b00793          	li	a5,11
    54f0:	00e80523          	sb	a4,10(a6)
    54f4:	f6f88e63          	beq	a7,a5,4c70 <ee_printf+0xcf0>
    54f8:	04314703          	lbu	a4,67(sp)
    54fc:	00c00793          	li	a5,12
    5500:	00e805a3          	sb	a4,11(a6)
    5504:	f6f88663          	beq	a7,a5,4c70 <ee_printf+0xcf0>
    5508:	04414703          	lbu	a4,68(sp)
    550c:	00d00793          	li	a5,13
    5510:	00e80623          	sb	a4,12(a6)
    5514:	f4f88e63          	beq	a7,a5,4c70 <ee_printf+0xcf0>
    5518:	04514703          	lbu	a4,69(sp)
    551c:	00f00793          	li	a5,15
    5520:	00e806a3          	sb	a4,13(a6)
    5524:	f4f89663          	bne	a7,a5,4c70 <ee_printf+0xcf0>
    5528:	04614783          	lbu	a5,70(sp)
    552c:	00f80723          	sb	a5,14(a6)
    5530:	f40ff06f          	j	4c70 <ee_printf+0xcf0>
    5534:	000e0593          	mv	a1,t3
    5538:	00280613          	addi	a2,a6,2
    553c:	d89fe06f          	j	42c4 <ee_printf+0x344>
    5540:	00e505b3          	add	a1,a0,a4
    5544:	00080793          	mv	a5,a6
    5548:	00054603          	lbu	a2,0(a0)
    554c:	00150513          	addi	a0,a0,1
    5550:	00178793          	addi	a5,a5,1
    5554:	fec78fa3          	sb	a2,-1(a5)
    5558:	feb518e3          	bne	a0,a1,5548 <ee_printf+0x15c8>
    555c:	ec5fe06f          	j	4420 <ee_printf+0x4a0>
    5560:	00280813          	addi	a6,a6,2
    5564:	ffd68e13          	addi	t3,a3,-3
    5568:	f60ff06f          	j	4cc8 <ee_printf+0xd48>
    556c:	00160593          	addi	a1,a2,1
    5570:	bcdff06f          	j	513c <ee_printf+0x11bc>
    5574:	03a00793          	li	a5,58
    5578:	01880023          	sb	s8,0(a6)
    557c:	01a800a3          	sb	s10,1(a6)
    5580:	007801a3          	sb	t2,3(a6)
    5584:	00580223          	sb	t0,4(a6)
    5588:	01f80323          	sb	t6,6(a6)
    558c:	01e803a3          	sb	t5,7(a6)
    5590:	01d804a3          	sb	t4,9(a6)
    5594:	01c80523          	sb	t3,10(a6)
    5598:	00680623          	sb	t1,12(a6)
    559c:	011806a3          	sb	a7,13(a6)
    55a0:	00a807a3          	sb	a0,15(a6)
    55a4:	00f80123          	sb	a5,2(a6)
    55a8:	00f802a3          	sb	a5,5(a6)
    55ac:	00f80423          	sb	a5,8(a6)
    55b0:	00f805a3          	sb	a5,11(a6)
    55b4:	00f80723          	sb	a5,14(a6)
    55b8:	9d5ff06f          	j	4f8c <ee_printf+0x100c>
